 CourseworkBase2018

 Timestamp is 5b23cb45 (Fri Jun 15 15:20:53 2018)

 Preferred load address is 00400000

 Start         Length     Name                   Class
 0001:00000000 00003440H .text$di                CODE
 0001:00003440 00022e00H .text$mn                CODE
 0001:00026240 000025e2H .text$x                 CODE
 0001:00028822 0000100cH .text$yd                CODE
 0002:00000000 00000104H .CRT$XCA                DATA
 0002:00000104 00000104H .CRT$XCAA               DATA
 0002:00000208 00000104H .CRT$XCL                DATA
 0002:0000030c 00000104H .CRT$XCZ                DATA
 0002:00000410 00000104H .CRT$XIA                DATA
 0002:00000514 00000104H .CRT$XIAA               DATA
 0002:00000618 00000104H .CRT$XIAC               DATA
 0002:0000071c 00000104H .CRT$XIZ                DATA
 0002:00000820 00000104H .CRT$XPA                DATA
 0002:00000924 00000104H .CRT$XPZ                DATA
 0002:00000a28 00000104H .CRT$XTA                DATA
 0002:00000b2c 00000104H .CRT$XTZ                DATA
 0002:00000c30 000020bcH .rdata                  DATA
 0002:00002cec 00000ff4H .rdata$r                DATA
 0002:00003ce0 00000274H .rdata$sxdata           DATA
 0002:00003f54 0000018cH .rdata$zzzdbg           DATA
 0002:000040e0 00000104H .rtc$IAA                DATA
 0002:000041e4 00000104H .rtc$IZZ                DATA
 0002:000042e8 00000104H .rtc$TAA                DATA
 0002:000043ec 00000104H .rtc$TZZ                DATA
 0002:000044f0 0000163aH .xdata$x                DATA
 0002:00005b2a 00000000H .edata                  DATA
 0003:00000000 00000130H .data                   DATA
 0003:00000130 00000768H .data$r                 DATA
 0003:00000898 00000468H .bss                    DATA
 0004:00000000 000005ecH .idata$5                DATA
 0004:000005ec 0000012cH .idata$2                DATA
 0004:00000718 00000014H .idata$3                DATA
 0004:0000072c 000005ecH .idata$4                DATA
 0004:00000d18 00001c3bH .idata$6                DATA
 0005:00000000 00000104H .00cfg                  DATA
 0006:00000000 00000170H .rsrc$01                DATA
 0006:00000170 000002ccH .rsrc$02                DATA

  Address         Publics by Value              Rva+Base       Lib:Object

 0000:00000000       ___dynamic_value_reloc_table 00000000     <absolute>
 0000:00000000       ___enclave_config          00000000     <absolute>
 0000:00000000       ___hybrid_code_map         00000000     <absolute>
 0000:00000000       ___guard_fids_table        00000000     <absolute>
 0000:00000000       ___guard_iat_table         00000000     <absolute>
 0000:00000000       ___guard_fids_count        00000000     <absolute>
 0000:00000000       ___guard_longjmp_table     00000000     <absolute>
 0000:00000000       ___hybrid_auxiliary_iat    00000000     <absolute>
 0000:00000000       ___guard_iat_count         00000000     <absolute>
 0000:00000000       ___guard_longjmp_count     00000000     <absolute>
 0000:00000000       ___hybrid_code_map_count   00000000     <absolute>
 0000:0000004d       ___safe_se_handler_count   0000004d     <absolute>
 0000:00000100       ___guard_flags             00000100     <absolute>
 0000:00000000       ___ImageBase               00400000     <linker-defined>
 0001:00003440       ??0ArrowObject@@QAE@PAVPsyagceEngine@@HH@Z 00404440 f   ArrowObject.obj
 0001:00003510       ??1ArrowObject@@UAE@XZ     00404510 f   ArrowObject.obj
 0001:00003530       ?Draw@ArrowObject@@UAEXXZ  00404530 f   ArrowObject.obj
 0001:00003590       ?DoUpdate@ArrowObject@@UAEXH@Z 00404590 f   ArrowObject.obj
 0001:00003640       ?_Eos@?$basic_string@DU?$char_traits@D@std@@V?$allocator@D@2@@std@@QAEXI@Z 00404640 f i PsyagceEngine.obj
 0001:00003680       ?_Has_unused_capacity@?$vector@HV?$allocator@H@std@@@std@@ABE_NXZ 00404680 f i PsyagceEngine.obj
 0001:000036c0       ??$__vcrt_va_start_verify_argument_type@QBD@@YAXXZ 004046c0 f i ArrowObject.obj
 0001:000036d0       ??_EArrowObject@@UAEPAXI@Z 004046d0 f i ArrowObject.obj
 0001:000036d0       ??_GArrowObject@@UAEPAXI@Z 004046d0 f i ArrowObject.obj
 0001:00003710       ?DrawForegroundOval@BaseEngine@@QAEXHHHHI@Z 00404710 f i ArrowObject.obj
 0001:00003750       ?IsVisible@DisplayableObject@@QBE_NXZ 00404750 f i ArrowObject.obj
 0001:00003770       ?Notify@DisplayableObject@@UAEJH@Z 00404770 f i ArrowObject.obj
 0001:00003790       ?Redraw@BaseEngine@@QAEX_N@Z 00404790 f i ArrowObject.obj
 0001:000037c0       ?RedrawObjects@DisplayableObject@@QAEXXZ 004047c0 f i ArrowObject.obj
 0001:000037e0       ?SetVisible@DisplayableObject@@QAEX_N@Z 004047e0 f i ArrowObject.obj
 0001:00003800       ___local_stdio_printf_options 00404800 f i ArrowObject.obj
 0001:00003810       __vfprintf_l               00404810 f i ArrowObject.obj
 0001:00003850       _printf                    00404850 f i ArrowObject.obj
 0001:000039b0       ??0EnemyObject@@QAE@PAVBaseEngine@@HHHH@Z 004049b0 f   EnemyObject.obj
 0001:00003eb0       ??1EnemyObject@@UAE@XZ     00404eb0 f   EnemyObject.obj
 0001:00003ed0       ?Draw@EnemyObject@@UAEXXZ  00404ed0 f   EnemyObject.obj
 0001:00004230       ?UpdatePosition@EnemyObject@@QAEXH@Z 00405230 f   EnemyObject.obj
 0001:00004250       ?isEnemy@EnemyObject@@UAE_NXZ 00405250 f   EnemyObject.obj
 0001:00004260       ?DoUpdate@EnemyObject@@UAEXH@Z 00405260 f   EnemyObject.obj
 0001:00004660       ?InitStats@EnemyObject@@UAEXXZ 00405660 f   EnemyObject.obj
 0001:000046d0       ?SetSize@TileManager@@QAEXHH@Z 004056d0 f i PsyagceEngine.obj
 0001:00004760       ?_Change_array@?$vector@HV?$allocator@H@std@@@std@@AAEXQAHII@Z 00405760 f i PsyagceEngine.obj
 0001:00004800       ?_Orphan_all@?$_Vector_alloc@U?$_Vec_base_types@HV?$allocator@H@std@@@std@@@std@@QAEXXZ 00405800 f i PsyagceEngine.obj
 0001:00004820       ?_Tidy@?$vector@HV?$allocator@H@std@@@std@@AAEXXZ 00405820 f i PsyagceEngine.obj
 0001:000048b0       ?_Umove_if_noexcept@?$vector@HV?$allocator@H@std@@@std@@AAEXPAH00@Z 004058b0 f i PsyagceEngine.obj
 0001:000048e0       ?data@?$basic_string@DU?$char_traits@D@std@@V?$allocator@D@2@@std@@QBEPBDXZ 004058e0 f i PsyagceEngine.obj
 0001:00004930       ?insert@?$basic_string@DU?$char_traits@D@std@@V?$allocator@D@2@@std@@QAEAAV12@IQBDI@Z 00405930 f i PsyagceEngine.obj
 0001:00004a50       ??$?0$$V@?$_Compressed_pair@V?$allocator@D@std@@V?$_String_val@U?$_Simple_types@D@std@@@2@$00@std@@QAE@U_Zero_then_variadic_args_t@1@@Z 00405a50 f i EnemyObject.obj
 0001:00004a80       ??$_Allocate@$07U_Default_allocate_traits@std@@$0A@@std@@YAPAXI@Z 00405a80 f i EnemyObject.obj
 0001:00004ac0       ??$_Allocate_manually_vector_aligned@U_Default_allocate_traits@std@@@std@@YAPAXI@Z 00405ac0 f i EnemyObject.obj
 0001:00004b20       ?is_open@?$basic_ofstream@DU?$char_traits@D@std@@@std@@QBE_NXZ 00405b20 f i PsyagceEngine.obj
 0001:00004b40       ??$_Convert_size@I@std@@YAII@Z 00405b40 f i EnemyObject.obj
 0001:00004b50       ??$_Deallocate@$07$0A@@std@@YAXPAXI@Z 00405b50 f i EnemyObject.obj
 0001:00004b90       ??$_Fgetc@D@std@@YA_NAADPAU_iobuf@@@Z 00405b90 f i EnemyObject.obj
 0001:00004bd0       ??$_Fputc@D@std@@YA_NDPAU_iobuf@@@Z 00405bd0 f i EnemyObject.obj
 0001:00004c10       ??$_Get_size_of_n@$00@std@@YAII@Z 00405c10 f i EnemyObject.obj
 0001:00004c20       ??$_Max_value@I@std@@YAABIABI0@Z 00405c20 f i EnemyObject.obj
 0001:00004c60       ??$_Min_value@I@std@@YAABIABI0@Z 00405c60 f i EnemyObject.obj
 0001:00004d80       ?is_open@?$basic_filebuf@DU?$char_traits@D@std@@@std@@QBE_NXZ 00405d80 f i PsyagceEngine.obj
 0001:00004ea0       ?max_size@?$vector@HV?$allocator@H@std@@@std@@QBEIXZ 00405ea0 f i PsyagceEngine.obj
 0001:00005010       ?size@?$vector@HV?$allocator@H@std@@@std@@QBEIXZ 00406010 f i PsyagceEngine.obj
 0001:00005060       ??$_Refancy@PAD$0A@@std@@YAPADPAD@Z 00406060 f i EnemyObject.obj
 0001:00005070       ??$_Unfancy@D@std@@YAPADPAD@Z 00406070 f i EnemyObject.obj
 0001:00005080       ??$_Ungetc@D@std@@YA_NABDPAU_iobuf@@@Z 00406080 f i EnemyObject.obj
 0001:000050d0       ??$addressof@PAD@std@@YAPAPADAAPAD@Z 004060d0 f i EnemyObject.obj
 0001:000050e0       ??$addressof@V?$_String_val@U?$_Simple_types@D@std@@@std@@@std@@YAPAV?$_String_val@U?$_Simple_types@D@std@@@0@AAV10@@Z 004060e0 f i EnemyObject.obj
 0001:000050f0       ??$construct@PADABQAD@?$_Default_allocator_traits@V?$allocator@D@std@@@std@@SAXAAV?$allocator@D@1@QAPADABQAD@Z 004060f0 f i EnemyObject.obj
 0001:00005130       ??$destroy@PAD@?$_Default_allocator_traits@V?$allocator@D@std@@@std@@SAXAAV?$allocator@D@1@QAPAD@Z 00406130 f i EnemyObject.obj
 0001:00005140       ??$forward@ABQAD@std@@YAABQADABQAD@Z 00406140 f i EnemyObject.obj
 0001:00005150       ??$use_facet@V?$codecvt@DDU_Mbstatet@@@std@@@std@@YAABV?$codecvt@DDU_Mbstatet@@@0@ABVlocale@0@@Z 00406150 f i EnemyObject.obj
 0001:00005290       ??0?$_String_alloc@U?$_String_base_types@DV?$allocator@D@std@@@std@@@std@@QAE@XZ 00406290 f i EnemyObject.obj
 0001:000052c0       ??0?$_String_const_iterator@V?$_String_val@U?$_Simple_types@D@std@@@std@@@std@@QAE@PBDPBU_Container_base0@1@@Z 004062c0 f i EnemyObject.obj
 0001:000052f0       ??0?$_String_iterator@V?$_String_val@U?$_Simple_types@D@std@@@std@@@std@@QAE@PADPBU_Container_base0@1@@Z 004062f0 f i EnemyObject.obj
 0001:00005320       ??0?$_String_val@U?$_Simple_types@D@std@@@std@@QAE@XZ 00406320 f i EnemyObject.obj
 0001:00005360       ??0?$allocator@D@std@@QAE@XZ 00406360 f i EnemyObject.obj
 0001:00005380       ??0?$basic_filebuf@DU?$char_traits@D@std@@@std@@QAE@PAU_iobuf@@@Z 00406380 f i EnemyObject.obj
 0001:00005410       ??0?$basic_ifstream@DU?$char_traits@D@std@@@std@@QAE@PBDHH@Z 00406410 f i EnemyObject.obj
 0001:00005560       ??0?$basic_string@DU?$char_traits@D@std@@V?$allocator@D@2@@std@@QAE@ID@Z 00406560 f i EnemyObject.obj
 0001:000055f0       ??0?$basic_string@DU?$char_traits@D@std@@V?$allocator@D@2@@std@@QAE@QBD@Z 004065f0 f i EnemyObject.obj
 0001:00005670       ??0?$basic_string@DU?$char_traits@D@std@@V?$allocator@D@2@@std@@QAE@XZ 00406670 f i EnemyObject.obj
 0001:000056d0       ??0?$fpos@U_Mbstatet@@@std@@QAE@U_Mbstatet@@_J@Z 004066d0 f i EnemyObject.obj
 0001:00005720       ??0?$fpos@U_Mbstatet@@@std@@QAE@_J@Z 00406720 f i EnemyObject.obj
 0001:00005770       ??0_Bxty@?$_String_val@U?$_Simple_types@D@std@@@std@@QAE@XZ 00406770 f i EnemyObject.obj
 0001:00005790       ??0bad_cast@std@@QAE@ABV01@@Z 00406790 f i EnemyObject.obj
 0001:000057c0       ??0bad_cast@std@@QAE@XZ    004067c0 f i EnemyObject.obj
 0001:000057f0       ??0exception@std@@QAE@ABV01@@Z 004067f0 f i EnemyObject.obj
 0001:00005840       ??0exception@std@@QAE@QBDH@Z 00406840 f i EnemyObject.obj
 0001:00005880       ??1?$_Compressed_pair@V?$allocator@D@std@@V?$_String_val@U?$_Simple_types@D@std@@@2@$00@std@@QAE@XZ 00406880 f i EnemyObject.obj
 0001:000058a0       ??1?$_String_alloc@U?$_String_base_types@DV?$allocator@D@std@@@std@@@std@@QAE@XZ 004068a0 f i EnemyObject.obj
 0001:000058c0       ??1?$_String_val@U?$_Simple_types@D@std@@@std@@QAE@XZ 004068c0 f i EnemyObject.obj
 0001:000058e0       ??1?$basic_filebuf@DU?$char_traits@D@std@@@std@@UAE@XZ 004068e0 f i EnemyObject.obj
 0001:00005970       ??1?$basic_ifstream@DU?$char_traits@D@std@@@std@@UAE@XZ 00406970 f i EnemyObject.obj
 0001:000059e0       ??1?$basic_string@DU?$char_traits@D@std@@V?$allocator@D@2@@std@@QAE@XZ 004069e0 f i EnemyObject.obj
 0001:00005a40       ??1_Bxty@?$_String_val@U?$_Simple_types@D@std@@@std@@QAE@XZ 00406a40 f i EnemyObject.obj
 0001:00005a50       ??1bad_cast@std@@UAE@XZ    00406a50 f i EnemyObject.obj
 0001:00005a70       ??1exception@std@@UAE@XZ   00406a70 f i EnemyObject.obj
 0001:00005aa0       ??1locale@std@@QAE@XZ      00406aa0 f i EnemyObject.obj
 0001:00005b40       ??2@YAPAXIPAX@Z            00406b40 f i EnemyObject.obj
 0001:00005b50       ??B?$fpos@U_Mbstatet@@@std@@QBE_JXZ 00406b50 f i EnemyObject.obj
 0001:00005b80       ??D?$_String_const_iterator@V?$_String_val@U?$_Simple_types@D@std@@@std@@@std@@QBEABDXZ 00406b80 f i EnemyObject.obj
 0001:00005ba0       ??D?$_String_iterator@V?$_String_val@U?$_Simple_types@D@std@@@std@@@std@@QBEAADXZ 00406ba0 f i EnemyObject.obj
 0001:00005cd0       ??_D?$basic_ifstream@DU?$char_traits@D@std@@@std@@QAEXXZ 00406cd0 f i EnemyObject.obj
 0001:00005cfa       ??_E?$basic_ifstream@DU?$char_traits@D@std@@@std@@$4PPPPPPPM@A@AEPAXI@Z 00406cfa f i EnemyObject.obj
 0001:00005d10       ??_G?$basic_filebuf@DU?$char_traits@D@std@@@std@@UAEPAXI@Z 00406d10 f i EnemyObject.obj
 0001:00005d10       ??_E?$basic_filebuf@DU?$char_traits@D@std@@@std@@UAEPAXI@Z 00406d10 f i EnemyObject.obj
 0001:00005d50       ??_E?$basic_ifstream@DU?$char_traits@D@std@@@std@@UAEPAXI@Z 00406d50 f i EnemyObject.obj
 0001:00005d50       ??_G?$basic_ifstream@DU?$char_traits@D@std@@@std@@UAEPAXI@Z 00406d50 f i EnemyObject.obj
 0001:00005da0       ??_EEnemyObject@@UAEPAXI@Z 00406da0 f i EnemyObject.obj
 0001:00005da0       ??_GEnemyObject@@UAEPAXI@Z 00406da0 f i EnemyObject.obj
 0001:00005de0       ??_Gbad_cast@std@@UAEPAXI@Z 00406de0 f i EnemyObject.obj
 0001:00005de0       ??_Ebad_cast@std@@UAEPAXI@Z 00406de0 f i EnemyObject.obj
 0001:00005e20       ??_Eexception@std@@UAEPAXI@Z 00406e20 f i EnemyObject.obj
 0001:00005e20       ??_Gexception@std@@UAEPAXI@Z 00406e20 f i EnemyObject.obj
 0001:00005e60       ?GetEngine@DisplayableObject@@QBEPAVBaseEngine@@XZ 00406e60 f i EnemyObject.obj
 0001:00005e80       ?GetForeground@BaseEngine@@QAEPAUSDL_Surface@@XZ 00406e80 f i EnemyObject.obj
 0001:00005ea0       ?GetHeight@ImageData@@QBEHXZ 00406ea0 f i EnemyObject.obj
 0001:00005ec0       ?GetWidth@ImageData@@QBEHXZ 00406ec0 f i EnemyObject.obj
 0001:00005ee0       ?GetWindowWidth@BaseEngine@@QBEHXZ 00406ee0 f i EnemyObject.obj
 0001:00005f00       ?_Adjust_manually_vector_aligned@std@@YAXAAPAXAAI@Z 00406f00 f i EnemyObject.obj
 0001:00005f80       ?_Adopt@_Iterator_base0@std@@QAEXPBX@Z 00406f80 f i EnemyObject.obj
 0001:00005f90       ?_Allocate@_Default_allocate_traits@std@@SAPAXI@Z 00406f90 f i EnemyObject.obj
 0001:00005fb0       ?_Calculate_growth@?$basic_string@DU?$char_traits@D@std@@V?$allocator@D@2@@std@@QBEII@Z 00406fb0 f i EnemyObject.obj
 0001:00006050       ?_Check_offset@?$_String_val@U?$_Simple_types@D@std@@@std@@QBEXI@Z 00407050 f i EnemyObject.obj
 0001:00006080       ?_Clamp_suffix_size@?$_String_val@U?$_Simple_types@D@std@@@std@@QBEIII@Z 00407080 f i EnemyObject.obj
 0001:000060c0       ?_Endwrite@?$basic_filebuf@DU?$char_traits@D@std@@@std@@IAE_NXZ 004070c0 f i EnemyObject.obj
 0001:00006350       ?_Get_data@?$_String_alloc@U?$_String_base_types@DV?$allocator@D@std@@@std@@@std@@QAEAAV?$_String_val@U?$_Simple_types@D@std@@@2@XZ 00407350 f i EnemyObject.obj
 0001:00006370       ?_Get_data@?$_String_alloc@U?$_String_base_types@DV?$allocator@D@std@@@std@@@std@@QBEABV?$_String_val@U?$_Simple_types@D@std@@@2@XZ 00407370 f i EnemyObject.obj
 0001:00006390       ?_Get_first@?$_Compressed_pair@V?$allocator@D@std@@V?$_String_val@U?$_Simple_types@D@std@@@2@$00@std@@QAEAAV?$allocator@D@2@XZ 00407390 f i EnemyObject.obj
 0001:000063b0       ?_Get_first@?$_Compressed_pair@V?$allocator@D@std@@V?$_String_val@U?$_Simple_types@D@std@@@2@$00@std@@QBEABV?$allocator@D@2@XZ 004073b0 f i EnemyObject.obj
 0001:000063d0       ?_Get_second@?$_Compressed_pair@V?$allocator@D@std@@V?$_String_val@U?$_Simple_types@D@std@@@2@$00@std@@QAEAAV?$_String_val@U?$_Simple_types@D@std@@@2@XZ 004073d0 f i EnemyObject.obj
 0001:000063f0       ?_Get_second@?$_Compressed_pair@V?$allocator@D@std@@V?$_String_val@U?$_Simple_types@D@std@@@2@$00@std@@QBEABV?$_String_val@U?$_Simple_types@D@std@@@2@XZ 004073f0 f i EnemyObject.obj
 0001:00006410       ?_Getal@?$_String_alloc@U?$_String_base_types@DV?$allocator@D@std@@@std@@@std@@QAEAAV?$allocator@D@2@XZ 00407410 f i EnemyObject.obj
 0001:00006430       ?_Getal@?$_String_alloc@U?$_String_base_types@DV?$allocator@D@std@@@std@@@std@@QBEABV?$allocator@D@2@XZ 00407430 f i EnemyObject.obj
 0001:00006450       ?_Getfacet@locale@std@@QBEPBVfacet@12@I@Z 00407450 f i EnemyObject.obj
 0001:00006500       ?_Init@?$basic_filebuf@DU?$char_traits@D@std@@@std@@IAEXPAU_iobuf@@W4_Initfl@12@@Z 00407500 f i EnemyObject.obj
 0001:00006600       ?_Initcvt@?$basic_filebuf@DU?$char_traits@D@std@@@std@@IAEXPBV?$codecvt@DDU_Mbstatet@@@2@@Z 00407600 f i EnemyObject.obj
 0001:00006650       ?_Large_string_engaged@?$_String_val@U?$_Simple_types@D@std@@@std@@QBE_NXZ 00407650 f i EnemyObject.obj
 0001:00006690       ?_Lock@?$basic_filebuf@DU?$char_traits@D@std@@@std@@UAEXXZ 00407690 f i EnemyObject.obj
 0001:000066c0       ?_Myptr@?$_String_val@U?$_Simple_types@D@std@@@std@@QAEPADXZ 004076c0 f i EnemyObject.obj
 0001:00006710       ?_Orphan_all@?$_String_alloc@U?$_String_base_types@DV?$allocator@D@std@@@std@@@std@@QAEXXZ 00407710 f i EnemyObject.obj
 0001:00006730       ?_Orphan_all@_Container_base0@std@@QAEXXZ 00407730 f i EnemyObject.obj
 0001:00006740       ?_Reset_back@?$basic_filebuf@DU?$char_traits@D@std@@@std@@AAEXXZ 00407740 f i EnemyObject.obj
 0001:00006790       ?_Set_back@?$basic_filebuf@DU?$char_traits@D@std@@@std@@AAEXXZ 00407790 f i EnemyObject.obj
 0001:00006800       ?_Tidy_deallocate@?$basic_string@DU?$char_traits@D@std@@V?$allocator@D@2@@std@@QAEXXZ 00407800 f i EnemyObject.obj
 0001:000068d0       ?_Tidy_init@?$basic_string@DU?$char_traits@D@std@@V?$allocator@D@2@@std@@QAEXXZ 004078d0 f i EnemyObject.obj
 0001:00006930       ?_Unlock@?$basic_filebuf@DU?$char_traits@D@std@@@std@@UAEXXZ 00407930 f i EnemyObject.obj
 0001:00006960       ?_Xlen@?$basic_string@DU?$char_traits@D@std@@V?$allocator@D@2@@std@@SAXXZ 00407960 f i EnemyObject.obj
 0001:00006980       ?_Xran@?$_String_val@U?$_Simple_types@D@std@@@std@@SAXXZ 00407980 f i EnemyObject.obj
 0001:000069a0       ?allocate@?$allocator@D@std@@QAEPADI@Z 004079a0 f i EnemyObject.obj
 0001:000069d0       ?append@?$basic_string@DU?$char_traits@D@std@@V?$allocator@D@2@@std@@QAEAAV12@ID@Z 004079d0 f i EnemyObject.obj
 0001:00006aa0       ?assign@?$basic_string@DU?$char_traits@D@std@@V?$allocator@D@2@@std@@QAEAAV12@ID@Z 00407aa0 f i EnemyObject.obj
 0001:00006b50       ?assign@?$basic_string@DU?$char_traits@D@std@@V?$allocator@D@2@@std@@QAEAAV12@QBD@Z 00407b50 f i EnemyObject.obj
 0001:00006b90       ?assign@?$basic_string@DU?$char_traits@D@std@@V?$allocator@D@2@@std@@QAEAAV12@QBDI@Z 00407b90 f i EnemyObject.obj
 0001:00006c40       ?assign@?$char_traits@D@std@@SAPADQADID@Z 00407c40 f i EnemyObject.obj
 0001:00006c60       ?assign@?$char_traits@D@std@@SAXAADABD@Z 00407c60 f i EnemyObject.obj
 0001:00006c80       ?begin@?$basic_string@DU?$char_traits@D@std@@V?$allocator@D@2@@std@@QAE?AV?$_String_iterator@V?$_String_val@U?$_Simple_types@D@std@@@std@@@2@XZ 00407c80 f i EnemyObject.obj
 0001:00006d10       ?close@?$basic_filebuf@DU?$char_traits@D@std@@@std@@QAEPAV12@XZ 00407d10 f i EnemyObject.obj
 0001:00006d90       ?copy@?$char_traits@D@std@@SAPADQADQBDI@Z 00407d90 f i EnemyObject.obj
 0001:00006db0       ?deallocate@?$allocator@D@std@@QAEXQADI@Z 00407db0 f i EnemyObject.obj
 0001:00006de0       ?eof@?$char_traits@D@std@@SAHXZ 00407de0 f i EnemyObject.obj
 0001:00006df0       ?eq_int_type@?$char_traits@D@std@@SA_NABH0@Z 00407df0 f i EnemyObject.obj
 0001:00006e20       ?erase@?$basic_string@DU?$char_traits@D@std@@V?$allocator@D@2@@std@@QAEAAV12@II@Z 00407e20 f i EnemyObject.obj
 0001:00006ed0       ?imbue@?$basic_filebuf@DU?$char_traits@D@std@@@std@@MAEXABVlocale@2@@Z 00407ed0 f i EnemyObject.obj
 0001:00006f00       ?length@?$char_traits@D@std@@SAIQBD@Z 00407f00 f i EnemyObject.obj
 0001:00006f20       ?max@?$numeric_limits@H@std@@SAHXZ 00407f20 f i EnemyObject.obj
 0001:00006f30       ?max_size@?$_Default_allocator_traits@V?$allocator@D@std@@@std@@SAIABV?$allocator@D@2@@Z 00407f30 f i EnemyObject.obj
 0001:00006f40       ?max_size@?$basic_string@DU?$char_traits@D@std@@V?$allocator@D@2@@std@@QBEIXZ 00407f40 f i EnemyObject.obj
 0001:00006fc0       ?move@?$char_traits@D@std@@SAPADQADQBDI@Z 00407fc0 f i EnemyObject.obj
 0001:00006fe0       ?not_eof@?$char_traits@D@std@@SAHABH@Z 00407fe0 f i EnemyObject.obj
 0001:00007040       ?open@?$basic_filebuf@DU?$char_traits@D@std@@@std@@QAEPAV12@PBDHH@Z 00408040 f i EnemyObject.obj
 0001:00007130       ?overflow@?$basic_filebuf@DU?$char_traits@D@std@@@std@@MAEHH@Z 00408130 f i EnemyObject.obj
 0001:00007510       ?pbackfail@?$basic_filebuf@DU?$char_traits@D@std@@@std@@MAEHH@Z 00408510 f i EnemyObject.obj
 0001:000076c0       ?seekoff@?$basic_filebuf@DU?$char_traits@D@std@@@std@@MAE?AV?$fpos@U_Mbstatet@@@2@_JHH@Z 004086c0 f i EnemyObject.obj
 0001:000077e0       ?seekpos@?$basic_filebuf@DU?$char_traits@D@std@@@std@@MAE?AV?$fpos@U_Mbstatet@@@2@V32@H@Z 004087e0 f i EnemyObject.obj
 0001:00007920       ?seekpos@?$fpos@U_Mbstatet@@@std@@QBE_JXZ 00408920 f i EnemyObject.obj
 0001:00007940       ?setbuf@?$basic_filebuf@DU?$char_traits@D@std@@@std@@MAEPAV?$basic_streambuf@DU?$char_traits@D@std@@@2@PAD_J@Z 00408940 f i EnemyObject.obj
 0001:000079d0       ?size@?$basic_string@DU?$char_traits@D@std@@V?$allocator@D@2@@std@@QBEIXZ 004089d0 f i EnemyObject.obj
 0001:000079f0       ?state@?$fpos@U_Mbstatet@@@std@@QBE?AU_Mbstatet@@XZ 004089f0 f i EnemyObject.obj
 0001:00007a20       ?sync@?$basic_filebuf@DU?$char_traits@D@std@@@std@@MAEHXZ 00408a20 f i EnemyObject.obj
 0001:00007ab0       ?to_char_type@?$char_traits@D@std@@SADABH@Z 00408ab0 f i EnemyObject.obj
 0001:00007ac0       ?to_int_type@?$char_traits@D@std@@SAHABD@Z 00408ac0 f i EnemyObject.obj
 0001:00007ad0       ?uflow@?$basic_filebuf@DU?$char_traits@D@std@@@std@@MAEHXZ 00408ad0 f i EnemyObject.obj
 0001:00007e70       ?underflow@?$basic_filebuf@DU?$char_traits@D@std@@@std@@MAEHXZ 00408e70 f i EnemyObject.obj
 0001:00007f30       ?what@exception@std@@UBEPBDXZ 00408f30 f i EnemyObject.obj
 0001:00007f70       ??0Equipment@@QAE@PAVBaseEngine@@H@Z 00408f70 f   Equipment.obj
 0001:00008280       ??1Equipment@@UAE@XZ       00409280 f   Equipment.obj
 0001:000082c0       ?Upgrade@Equipment@@QAEXXZ 004092c0 f   Equipment.obj
 0001:00008410       ?Draw@Equipment@@UAEXXZ    00409410 f   Equipment.obj
 0001:00008480       ?DoUpdate@Equipment@@QAEXXZ 00409480 f   Equipment.obj
 0001:000084a0       ?LoadFrames@Equipment@@QAEXXZ 004094a0 f   Equipment.obj
 0001:00008890       ?SetName@Equipment@@QAEXV?$basic_string@DU?$char_traits@D@std@@V?$allocator@D@2@@std@@@Z 00409890 f   Equipment.obj
 0001:000088f0       ?SetAttack@Equipment@@QAEXH@Z 004098f0 f   Equipment.obj
 0001:00008910       ?SetPrice@Equipment@@QAEXH@Z 00409910 f   Equipment.obj
 0001:00008930       ?SetHero@Equipment@@QAEXPAVImageData@@@Z 00409930 f   Equipment.obj
 0001:00008950       ?IsClicked@Equipment@@QAE_NHH@Z 00409950 f   Equipment.obj
 0001:000089a0       ?PrintDesc@Equipment@@QAEXXZ 004099a0 f   Equipment.obj
 0001:000093d0       ??$?0ABV?$allocator@D@std@@$$V@?$_Compressed_pair@V?$allocator@D@std@@V?$_String_val@U?$_Simple_types@D@std@@@2@$00@std@@QAE@U_One_then_variadic_args_t@1@ABV?$allocator@D@1@@Z 0040a3d0 f i Equipment.obj
 0001:00009400       ??$?0ABV?$allocator@D@std@@X@?$_String_alloc@U?$_String_base_types@DV?$allocator@D@std@@@std@@@std@@QAE@ABV?$allocator@D@1@@Z 0040a400 f i Equipment.obj
 0001:00009440       ??$?0PADX@?$basic_string@DU?$char_traits@D@std@@V?$allocator@D@2@@std@@QAE@PAD0ABV?$allocator@D@1@@Z 0040a440 f i Equipment.obj
 0001:000094f0       ??$?0V?$allocator@D@std@@$$V@?$_Compressed_pair@V?$allocator@D@std@@V?$_String_val@U?$_Simple_types@D@std@@@2@$00@std@@QAE@U_One_then_variadic_args_t@1@$$QAV?$allocator@D@1@@Z 0040a4f0 f i Equipment.obj
 0001:00009520       ??$?0V?$allocator@D@std@@X@?$_String_alloc@U?$_String_base_types@DV?$allocator@D@std@@@std@@@std@@QAE@$$QAV?$allocator@D@1@@Z 0040a520 f i Equipment.obj
 0001:00009560       ??$?8DU?$char_traits@D@std@@V?$allocator@D@1@@std@@YA_NABV?$basic_string@DU?$char_traits@D@std@@V?$allocator@D@2@@0@QBD@Z 0040a560 f i Equipment.obj
 0001:00009580       ??$?HDU?$char_traits@D@std@@V?$allocator@D@1@@std@@YA?AV?$basic_string@DU?$char_traits@D@std@@V?$allocator@D@2@@0@ABV10@0@Z 0040a580 f i Equipment.obj
 0001:00009670       ??$_Integral_to_string@DH@std@@YA?AV?$basic_string@DU?$char_traits@D@std@@V?$allocator@D@2@@0@H@Z 0040a670 f i Equipment.obj
 0001:00009740       ??$_Pocca@V?$allocator@D@std@@@std@@YAXAAV?$allocator@D@0@ABV10@@Z 0040a740 f i Equipment.obj
 0001:00009770       ??$_Pocca@V?$allocator@D@std@@@std@@YAXAAV?$allocator@D@0@ABV10@U?$integral_constant@_N$0A@@0@@Z 0040a770 f i Equipment.obj
 0001:00009780       ??$_Pocma@V?$allocator@D@std@@@std@@YAXAAV?$allocator@D@0@0@Z 0040a780 f i Equipment.obj
 0001:000097b0       ??$_Pocma@V?$allocator@D@std@@@std@@YAXAAV?$allocator@D@0@0U?$integral_constant@_N$00@0@@Z 0040a7b0 f i Equipment.obj
 0001:00009be0       ??$_Traits_equal@U?$char_traits@D@std@@@std@@YA_NQBDI0I@Z 0040abe0 f i Equipment.obj
 0001:00009c30       ??$_UIntegral_to_buff@DI@std@@YAPADPADI@Z 0040ac30 f i Equipment.obj
 0001:00009d20       ??$_Unchecked@PAD@std@@YAPADPAD@Z 0040ad20 f i Equipment.obj
 0001:00009d30       ??$addressof@$$CBV?$basic_string@DU?$char_traits@D@std@@V?$allocator@D@2@@std@@@std@@YAPBV?$basic_string@DU?$char_traits@D@std@@V?$allocator@D@2@@0@ABV10@@Z 0040ad30 f i Equipment.obj
 0001:00009d40       ??$addressof@V?$basic_string@DU?$char_traits@D@std@@V?$allocator@D@2@@std@@@std@@YAPAV?$basic_string@DU?$char_traits@D@std@@V?$allocator@D@2@@0@AAV10@@Z 0040ad40 f i Equipment.obj
 0001:00009d50       ??$end@D$0BF@@std@@YAPADAAY0BF@D@Z 0040ad50 f i Equipment.obj
 0001:00009d60       ??$endl@DU?$char_traits@D@std@@@std@@YAAAV?$basic_ostream@DU?$char_traits@D@std@@@0@AAV10@@Z 0040ad60 f i Equipment.obj
 0001:00009da0       ??$forward@ABV?$allocator@D@std@@@std@@YAABV?$allocator@D@0@ABV10@@Z 0040ada0 f i Equipment.obj
 0001:00009db0       ??$forward@V?$allocator@D@std@@@std@@YA$$QAV?$allocator@D@0@AAV10@@Z 0040adb0 f i Equipment.obj
 0001:00009dc0       ??$move@AAV?$allocator@D@std@@@std@@YA$$QAV?$allocator@D@0@AAV10@@Z 0040adc0 f i Equipment.obj
 0001:00009dd0       ??$move@AAV?$basic_string@DU?$char_traits@D@std@@V?$allocator@D@2@@std@@@std@@YA$$QAV?$basic_string@DU?$char_traits@D@std@@V?$allocator@D@2@@0@AAV10@@Z 0040add0 f i Equipment.obj
 0001:00009de0       ??0?$basic_string@DU?$char_traits@D@std@@V?$allocator@D@2@@std@@QAE@$$QAV01@@Z 0040ade0 f i Equipment.obj
 0001:00009e80       ??4?$basic_string@DU?$char_traits@D@std@@V?$allocator@D@2@@std@@QAEAAV01@$$QAV01@@Z 0040ae80 f i Equipment.obj
 0001:00009f30       ??4?$basic_string@DU?$char_traits@D@std@@V?$allocator@D@2@@std@@QAEAAV01@ABV01@@Z 0040af30 f i Equipment.obj
 0001:00009fb0       ??4?$basic_string@DU?$char_traits@D@std@@V?$allocator@D@2@@std@@QAEAAV01@QBD@Z 0040afb0 f i Equipment.obj
 0001:0000a0c0       ??Y?$basic_string@DU?$char_traits@D@std@@V?$allocator@D@2@@std@@QAEAAV01@ABV01@@Z 0040b0c0 f i Equipment.obj
 0001:0000a0e0       ??_EEquipment@@UAEPAXI@Z   0040b0e0 f i Equipment.obj
 0001:0000a0e0       ??_GEquipment@@UAEPAXI@Z   0040b0e0 f i Equipment.obj
 0001:0000a120       ?DrawForegroundRectangle@BaseEngine@@QAEXHHHHI@Z 0040b120 f i Equipment.obj
 0001:0000a160       ?DrawForegroundString@BaseEngine@@QAEXHHPBDIPAVFont@@@Z 0040b160 f i Equipment.obj
 0001:0000a1a0       ?_Assign_rv_contents@?$basic_string@DU?$char_traits@D@std@@V?$allocator@D@2@@std@@QAEX$$QAV12@U?$integral_constant@_N$00@2@@Z 0040b1a0 f i Equipment.obj
 0001:0000a1e0       ?_Assign_rv_contents_with_alloc_always_equal@?$basic_string@DU?$char_traits@D@std@@V?$allocator@D@2@@std@@QAEX$$QAV12@U?$integral_constant@_N$00@2@@Z 0040b1e0 f i Equipment.obj
 0001:0000a290       ?_Become_small@?$basic_string@DU?$char_traits@D@std@@V?$allocator@D@2@@std@@QAEXXZ 0040b290 f i Equipment.obj
 0001:0000a350       ?_Construct@?$basic_string@DU?$char_traits@D@std@@V?$allocator@D@2@@std@@QAEXQAD0Urandom_access_iterator_tag@2@@Z 0040b350 f i Equipment.obj
 0001:0000a390       ?_Copy_alloc@?$_String_alloc@U?$_String_base_types@DV?$allocator@D@std@@@std@@@std@@QAEXABV?$allocator@D@2@@Z 0040b390 f i Equipment.obj
 0001:0000a3c0       ?_Equal@?$basic_string@DU?$char_traits@D@std@@V?$allocator@D@2@@std@@QBE_NQBD@Z 0040b3c0 f i Equipment.obj
 0001:0000a450       ?_Move_alloc@?$_String_alloc@U?$_String_base_types@DV?$allocator@D@std@@@std@@@std@@QAEXAAV?$allocator@D@2@@Z 0040b450 f i Equipment.obj
 0001:0000a480       ?_Myptr@?$_String_val@U?$_Simple_types@D@std@@@std@@QBEPBDXZ 0040b480 f i Equipment.obj
 0001:0000a4d0       ?append@?$basic_string@DU?$char_traits@D@std@@V?$allocator@D@2@@std@@QAEAAV12@ABV12@@Z 0040b4d0 f i Equipment.obj
 0001:0000a510       ?append@?$basic_string@DU?$char_traits@D@std@@V?$allocator@D@2@@std@@QAEAAV12@QBDI@Z 0040b510 f i Equipment.obj
 0001:0000a5e0       ?c_str@?$basic_string@DU?$char_traits@D@std@@V?$allocator@D@2@@std@@QBEPBDXZ 0040b5e0 f i Equipment.obj
 0001:0000a640       ?compare@?$char_traits@D@std@@SAHQBD0I@Z 0040b640 f i Equipment.obj
 0001:0000a660       ?reserve@?$basic_string@DU?$char_traits@D@std@@V?$allocator@D@2@@std@@QAEXI@Z 0040b660 f i Equipment.obj
 0001:0000a710       ?to_string@std@@YA?AV?$basic_string@DU?$char_traits@D@std@@V?$allocator@D@2@@1@H@Z 0040b710 f i Equipment.obj
 0001:0000a750       __vsnprintf_l              0040b750 f i Equipment.obj
 0001:0000a7c0       __vsprintf_l               0040b7c0 f i Equipment.obj
 0001:0000a7f0       _sprintf                   0040b7f0 f i Equipment.obj
 0001:0000a950       ??0HeroObject@@QAE@PAVBaseEngine@@HH@Z 0040b950 f   HeroObject.obj
 0001:0000af20       ??1HeroObject@@UAE@XZ      0040bf20 f   HeroObject.obj
 0001:0000afb0       ?Draw@HeroObject@@UAEXXZ   0040bfb0 f   HeroObject.obj
 0001:0000b360       ?DoUpdate@HeroObject@@UAEXH@Z 0040c360 f   HeroObject.obj
 0001:0000b9c0       ?IncrementExp@HeroObject@@QAEXH@Z 0040c9c0 f   HeroObject.obj
 0001:0000b9f0       ?InitInventory@HeroObject@@QAEXXZ 0040c9f0 f   HeroObject.obj
 0001:0000ccc0       ??0ImageData@@QAE@XZ       0040dcc0 f i HeroObject.obj
 0001:0000ce10       ??_GHeroObject@@UAEPAXI@Z  0040de10 f i HeroObject.obj
 0001:0000ce10       ??_EHeroObject@@UAEPAXI@Z  0040de10 f i HeroObject.obj
 0001:0000ce50       ?FreeData@ImageData@@QAEXXZ 0040de50 f i HeroObject.obj
 0001:0000ceb0       ?IsLoaded@ImageData@@QBE_NXZ 0040deb0 f i HeroObject.obj
 0001:0000cf10       _SDL_main                  0040df10 f   mainfunction.obj
 0001:0000d020       ??0BaseEngine@@QAE@XZ      0040e020 f   BaseEngine.obj
 0001:0000d0f0       ??1BaseEngine@@UAE@XZ      0040e0f0 f   BaseEngine.obj
 0001:0000d150       ?Initialise@BaseEngine@@QAEHPBDHH0H@Z 0040e150 f   BaseEngine.obj
 0001:0000d310       ?Deinitialise@BaseEngine@@QAEXXZ 0040e310 f   BaseEngine.obj
 0001:0000d340       ?MainLoop@BaseEngine@@QAEHXZ 0040e340 f   BaseEngine.obj
 0001:0000d500       ?DestroyOldObjects@BaseEngine@@UAEXXZ 0040e500 f   BaseEngine.obj
 0001:0000d5b0       ?CreateObjectArray@BaseEngine@@QAEXH@Z 0040e5b0 f   BaseEngine.obj
 0001:0000d620       ?StoreObjectInArray@BaseEngine@@QAEXHPAVDisplayableObject@@@Z 0040e620 f   BaseEngine.obj
 0001:0000d640       ?IsKeyPressed@BaseEngine@@QBE_NH@Z 0040e640 f   BaseEngine.obj
 0001:0000d670       ?GetDisplayableObject@BaseEngine@@QAEPAVDisplayableObject@@H@Z 0040e670 f   BaseEngine.obj
 0001:0000d6a0       ?KeyUp@BaseEngine@@UAEXH@Z 0040e6a0 f   BaseEngine.obj
 0001:0000d6b0       ?KeyDown@BaseEngine@@UAEXH@Z 0040e6b0 f   BaseEngine.obj
 0001:0000d6c0       ?MouseMoved@BaseEngine@@UAEXHH@Z 0040e6c0 f   BaseEngine.obj
 0001:0000d6d0       ?MouseDown@BaseEngine@@UAEXHHH@Z 0040e6d0 f   BaseEngine.obj
 0001:0000d6e0       ?MouseUp@BaseEngine@@UAEXHHH@Z 0040e6e0 f   BaseEngine.obj
 0001:0000d6f0       ?GameInit@BaseEngine@@UAEHXZ 0040e6f0 f   BaseEngine.obj
 0001:0000d720       ?CleanUp@BaseEngine@@UAEXXZ 0040e720 f   BaseEngine.obj
 0001:0000d730       ?InitialiseObjects@BaseEngine@@UAEHXZ 0040e730 f   BaseEngine.obj
 0001:0000d750       ?SetupBackgroundBuffer@BaseEngine@@UAEXXZ 0040e750 f   BaseEngine.obj
 0001:0000d770       ?GameAction@BaseEngine@@UAEXXZ 0040e770 f   BaseEngine.obj
 0001:0000d7b0       ?UnDrawStrings@BaseEngine@@UAEXXZ 0040e7b0 f   BaseEngine.obj
 0001:0000d7c0       ?DrawStringsUnderneath@BaseEngine@@UAEXXZ 0040e7c0 f   BaseEngine.obj
 0001:0000d7d0       ?DrawStringsOnTop@BaseEngine@@UAEXXZ 0040e7d0 f   BaseEngine.obj
 0001:0000d7e0       ?GameRender@BaseEngine@@UAEXXZ 0040e7e0 f   BaseEngine.obj
 0001:0000d9d0       ?UndrawObjects@BaseEngine@@UAEXXZ 0040e9d0 f   BaseEngine.obj
 0001:0000da40       ?DrawObjects@BaseEngine@@UAEXXZ 0040ea40 f   BaseEngine.obj
 0001:0000dab0       ?UpdateAllObjects@BaseEngine@@UAEXH@Z 0040eab0 f   BaseEngine.obj
 0001:0000db30       ?NotifyAllObjects@BaseEngine@@QAEXH@Z 0040eb30 f   BaseEngine.obj
 0001:0000db90       ?NotifyAllObjectsGetCountNonZero@BaseEngine@@QAEHH@Z 0040eb90 f   BaseEngine.obj
 0001:0000dc10       ?NotifyAllObjectsGetSum@BaseEngine@@QAEHH@Z 0040ec10 f   BaseEngine.obj
 0001:0000dc80       ?NotifyAllObjectsGetMax@BaseEngine@@QAEHH@Z 0040ec80 f   BaseEngine.obj
 0001:0000dd00       ?NotifyAllObjectsGetMin@BaseEngine@@QAEHH@Z 0040ed00 f   BaseEngine.obj
 0001:0000dd80       ?FillBackground@BaseEngine@@UAEXI@Z 0040ed80 f   BaseEngine.obj
 0001:0000dde0       ?CopyAllBackgroundBuffer@BaseEngine@@QAEXXZ 0040ede0 f   BaseEngine.obj
 0001:0000de30       ?CopyBackgroundPixels@BaseEngine@@QAEXHHHH@Z 0040ee30 f   BaseEngine.obj
 0001:0000df00       ?GetColour@BaseEngine@@QBEIH@Z 0040ef00 f   BaseEngine.obj
 0001:0000e140       ?DrawLine@BaseEngine@@QAEXNNNNIPAUSDL_Surface@@@Z 0040f140 f   BaseEngine.obj
 0001:0000e290       ?DrawThickLine@BaseEngine@@QAEXNNNNIHPAUSDL_Surface@@@Z 0040f290 f   BaseEngine.obj
 0001:0000e6a0       ?DrawVerticalSidedRegion@BaseEngine@@QAEXNNNNNNIPAUSDL_Surface@@@Z 0040f6a0 f   BaseEngine.obj
 0001:0000e970       ?DrawTriangle@BaseEngine@@QAEXNNNNNNIPAUSDL_Surface@@@Z 0040f970 f   BaseEngine.obj
 0001:0000ebf0       ?DrawRectangle@BaseEngine@@QAEXHHHHIPAUSDL_Surface@@@Z 0040fbf0 f   BaseEngine.obj
 0001:0000ec90       ?DrawOval@BaseEngine@@QAEXHHHHIPAUSDL_Surface@@@Z 0040fc90 f   BaseEngine.obj
 0001:0000ee00       ?DrawHollowOval@BaseEngine@@QAEXHHHHHHHHIPAUSDL_Surface@@@Z 0040fe00 f   BaseEngine.obj
 0001:0000f060       ?DrawPolygon@BaseEngine@@QAEXHPAN0IPAUSDL_Surface@@@Z 00410060 f   BaseEngine.obj
 0001:0000f820       ?DrawString@BaseEngine@@QAEXHHPBDIPAVFont@@PAUSDL_Surface@@@Z 00410820 f   BaseEngine.obj
 0001:0000f950       ?DrawShortenedArrow@BaseEngine@@QAEXHHHHHHIHHPAUSDL_Surface@@@Z 00410950 f   BaseEngine.obj
 0001:0000fe70       ?DrawShortenedLine@BaseEngine@@QAEXHHHHHHIHPAUSDL_Surface@@@Z 00410e70 f   BaseEngine.obj
 0001:00010270       ?GetAngle@BaseEngine@@SANNNNN@Z 00411270 f   BaseEngine.obj
 0001:00010fc0       ??$SwapPoints@H@@YAXAAH0@Z 00411fc0 f i BaseEngine.obj
 0001:00010ff0       ??$SwapPoints@N@@YAXAAN0@Z 00411ff0 f i BaseEngine.obj
 0001:00011030       ??_EBaseEngine@@UAEPAXI@Z  00412030 f i BaseEngine.obj
 0001:00011030       ??_GBaseEngine@@UAEPAXI@Z  00412030 f i BaseEngine.obj
 0001:00011070       ?GetFont@Font@@QAEPAU_TTF_Font@@XZ 00412070 f i BaseEngine.obj
 0001:00011090       ?GetIntsPerWindowRow@BaseEngine@@IBEHPAUSDL_Surface@@@Z 00412090 f i BaseEngine.obj
 0001:000110b0       ?GetModifiedTime@BaseEngine@@UBEHXZ 004120b0 f i BaseEngine.obj
 0001:000110d0       ?GetTime@BaseEngine@@QBEHXZ 004120d0 f i BaseEngine.obj
 0001:000110f0       ?IsTimeToActWithSleep@BaseEngine@@QBE_NXZ 004120f0 f i BaseEngine.obj
 0001:00011170       ?SafeSetPixel@BaseEngine@@QAEXHHIPAUSDL_Surface@@@Z 00412170 f i BaseEngine.obj
 0001:000111f0       ?SetTimeToAct@BaseEngine@@QAEXH@Z 004121f0 f i BaseEngine.obj
 0001:00011220       ?SymbolToKeycode@BaseEngine@@SAHH@Z 00412220 f i BaseEngine.obj
 0001:000115a0       _fprintf                   004125a0 f i BaseEngine.obj
 0001:000115f0       ??0DisplayableObject@@QAE@PAVBaseEngine@@@Z 004125f0 f   DisplayableObject.obj
 0001:00011670       ??1DisplayableObject@@UAE@XZ 00412670 f   DisplayableObject.obj
 0001:00011690       ?Draw@DisplayableObject@@UAEXXZ 00412690 f   DisplayableObject.obj
 0001:00011730       ?RedrawBackground@DisplayableObject@@UAEXXZ 00412730 f   DisplayableObject.obj
 0001:00011770       ?DoUpdate@DisplayableObject@@UAEXH@Z 00412770 f   DisplayableObject.obj
 0001:00011780       ?StoreLastScreenPositionForUndraw@DisplayableObject@@QAEXXZ 00412780 f   DisplayableObject.obj
 0001:00011810       ??_EDisplayableObject@@UAEPAXI@Z 00412810 f i DisplayableObject.obj
 0001:00011810       ??_GDisplayableObject@@UAEPAXI@Z 00412810 f i DisplayableObject.obj
 0001:00011850       ?SafeSetForegroundPixel@BaseEngine@@QAEXHHI@Z 00412850 f i DisplayableObject.obj
 0001:00011890       ??0FontManager@@QAE@XZ     00412890 f   FontManager.obj
 0001:00011900       ??1FontManager@@QAE@XZ     00412900 f   FontManager.obj
 0001:00011980       ?GetFont@FontManager@@QAEPAVFont@@PBDH@Z 00412980 f   FontManager.obj
 0001:00011b20       ?LoadFonts@FontManager@@QAEXXZ 00412b20 f   FontManager.obj
 0001:00011c50       ??$GrowArray@PAVFont@@@@YAPAPAVFont@@PAPAV0@AAHH@Z 00412c50 f i FontManager.obj
 0001:00011d10       ??0Font@@QAE@PBDH@Z        00412d10 f i FontManager.obj
 0001:00011d90       ??1Font@@QAE@XZ            00412d90 f i FontManager.obj
 0001:00011e10       ??_GFont@@QAEPAXI@Z        00412e10 f i FontManager.obj
 0001:00011e50       ?GetName@Font@@QAEPBDXZ    00412e50 f i FontManager.obj
 0001:00011e70       ?GetSize@Font@@QAEHXZ      00412e70 f i FontManager.obj
 0001:00011e90       ?LoadImage@ImageData@@QAE_NPBD@Z 00412e90 f   JPGImage.obj
 0001:000120d0       ?RenderImage@ImageData@@QBEXPAUSDL_Surface@@HHHHHH@Z 004130d0 f   JPGImage.obj
 0001:00012200       ?RenderImageWithMask@ImageData@@QBEXPAUSDL_Surface@@HHHHHH@Z 00413200 f   JPGImage.obj
 0001:00012370       ?ShrinkFrom@ImageData@@QAEXPBV1@H@Z 00413370 f   JPGImage.obj
 0001:00012560       ?ResizeFrom@ImageData@@QAEXPBV1@HH_N@Z 00413560 f   JPGImage.obj
 0001:00012930       ?FlexibleRenderImageWithMask@ImageData@@QBEXPAUSDL_Surface@@HHHHHHHHHHHHHH@Z 00413930 f   JPGImage.obj
 0001:00012df0       ?InitImage@@YAXXZ          00413df0 f   JPGImage.obj
 0001:00012e00       ?DeinitImage@@YAXXZ        00413e00 f   JPGImage.obj
 0001:000131f0       ?GetXForRotationAndCrop@@YAHHHHHHH@Z 004141f0 f i JPGImage.obj
 0001:00013260       ?GetYForRotationAndCrop@@YAHHHHHHH@Z 00414260 f i JPGImage.obj
 0001:000133e0       ??0PsyagceEngine@@QAE@XZ   004143e0 f   PsyagceEngine.obj
 0001:00013660       ??1PsyagceEngine@@UAE@XZ   00414660 f   PsyagceEngine.obj
 0001:00013760       ?SetupBackgroundBuffer@PsyagceEngine@@UAEXXZ 00414760 f   PsyagceEngine.obj
 0001:00013ff0       ?MouseDown@PsyagceEngine@@UAEXHHH@Z 00414ff0 f   PsyagceEngine.obj
 0001:000145e0       ?KeyDown@PsyagceEngine@@UAEXH@Z 004155e0 f   PsyagceEngine.obj
 0001:000146c0       ?DrawStringsUnderneath@PsyagceEngine@@UAEXXZ 004156c0 f   PsyagceEngine.obj
 0001:00014700       ?UnDrawStrings@PsyagceEngine@@UAEXXZ 00415700 f   PsyagceEngine.obj
 0001:00014730       ?DrawStringsOnTop@PsyagceEngine@@UAEXXZ 00415730 f   PsyagceEngine.obj
 0001:000153a0       ?InitialiseObjects@PsyagceEngine@@UAEHXZ 004163a0 f   PsyagceEngine.obj
 0001:000155f0       ?GameAction@PsyagceEngine@@UAEXXZ 004165f0 f   PsyagceEngine.obj
 0001:000156e0       ?UpdateBackground@PsyagceEngine@@QAEXXZ 004166e0 f   PsyagceEngine.obj
 0001:00015770       ?LoadBackground@PsyagceEngine@@QAEXXZ 00416770 f   PsyagceEngine.obj
 0001:00015860       ?UndrawObjects@PsyagceEngine@@UAEXXZ 00416860 f   PsyagceEngine.obj
 0001:00015880       ?CleanUp@PsyagceEngine@@UAEXXZ 00416880 f   PsyagceEngine.obj
 0001:00015940       ?DrawObjects@PsyagceEngine@@UAEXXZ 00416940 f   PsyagceEngine.obj
 0001:00015960       ?CheckTiles@PsyagceEngine@@QAE_NHH@Z 00416960 f   PsyagceEngine.obj
 0001:000159f0       ?SaveStats@PsyagceEngine@@QAEXXZ 004169f0 f   PsyagceEngine.obj
 0001:000161d0       ?LoadStats@PsyagceEngine@@QAEXXZ 004171d0 f   PsyagceEngine.obj
 0001:00016680       ?UpdatePlatforms@PsyagceEngine@@QAEXXZ 00417680 f   PsyagceEngine.obj
 0001:00016860       ?NewGame@PsyagceEngine@@QAEXXZ 00417860 f   PsyagceEngine.obj
 0001:00016ef0       ?SetState@PsyagceEngine@@QAEXH@Z 00417ef0 f   PsyagceEngine.obj
 0001:00016f80       ?returnState@PsyagceEngine@@QAEHXZ 00417f80 f   PsyagceEngine.obj
 0001:00017db0       ??$?0$$V@?$_Compressed_pair@V?$allocator@H@std@@V?$_Vector_val@U?$_Simple_types@H@std@@@2@$00@std@@QAE@U_Zero_then_variadic_args_t@1@@Z 00418db0 f i PsyagceEngine.obj
 0001:00017de0       ??$?5DU?$char_traits@D@std@@V?$allocator@D@1@@std@@YAAAV?$basic_istream@DU?$char_traits@D@std@@@0@$$QAV10@AAV?$basic_string@DU?$char_traits@D@std@@V?$allocator@D@2@@0@@Z 00418de0 f i PsyagceEngine.obj
 0001:00018120       ??$?5DU?$char_traits@D@std@@V?$allocator@D@1@@std@@YAAAV?$basic_istream@DU?$char_traits@D@std@@@0@AAV10@AAV?$basic_string@DU?$char_traits@D@std@@V?$allocator@D@2@@0@@Z 00419120 f i PsyagceEngine.obj
 0001:00018150       ??$?6DU?$char_traits@D@std@@V?$allocator@D@1@@std@@YAAAV?$basic_ostream@DU?$char_traits@D@std@@@0@AAV10@ABV?$basic_string@DU?$char_traits@D@std@@V?$allocator@D@2@@0@@Z 00419150 f i PsyagceEngine.obj
 0001:00018180       ??$?6U?$char_traits@D@std@@@std@@YAAAV?$basic_ostream@DU?$char_traits@D@std@@@0@AAV10@PBD@Z 00419180 f i PsyagceEngine.obj
 0001:00018580       ??$?HDU?$char_traits@D@std@@V?$allocator@D@1@@std@@YA?AV?$basic_string@DU?$char_traits@D@std@@V?$allocator@D@2@@0@QBD$$QAV10@@Z 00419580 f i PsyagceEngine.obj
 0001:000185d0       ??$?HDU?$char_traits@D@std@@V?$allocator@D@1@@std@@YA?AV?$basic_string@DU?$char_traits@D@std@@V?$allocator@D@2@@0@QBDABV10@@Z 004195d0 f i PsyagceEngine.obj
 0001:000186d0       ??$_Copy_memmove@PAHPAH@std@@YAPAHPAH00@Z 004196d0 f i PsyagceEngine.obj
 0001:00018720       ??$_Destroy_range1@V?$allocator@H@std@@@std@@YAXPAH0AAV?$allocator@H@0@U?$integral_constant@_N$00@0@@Z 00419720 f i PsyagceEngine.obj
 0001:00018730       ??$_Destroy_range@V?$allocator@H@std@@@std@@YAXPAH0AAV?$allocator@H@0@@Z 00419730 f i PsyagceEngine.obj
 0001:00018760       ??$_Emplace_back_with_unused_capacity@ABH@?$vector@HV?$allocator@H@std@@@std@@AAEXABH@Z 00419760 f i PsyagceEngine.obj
 0001:00018800       ??$_Get_size_of_n@$03@std@@YAII@Z 00419800 f i PsyagceEngine.obj
 0001:00018840       ??$_Insert_string@DU?$char_traits@D@std@@I@std@@YAAAV?$basic_ostream@DU?$char_traits@D@std@@@0@AAV10@QBDI@Z 00419840 f i PsyagceEngine.obj
 0001:00018bd0       ??$_Ptr_move_cat@HH@std@@YA?AU_Really_trivial_ptr_iterator_tag@0@ABQAH0@Z 00419bd0 f i PsyagceEngine.obj
 0001:00019410       ??$_Rechecked@PAHPAH@std@@YAAAPAHAAPAHQAH@Z 0041a410 f i PsyagceEngine.obj
 0001:00019430       ??$_Unchecked@PAH@std@@YAPAHPAH@Z 0041a430 f i PsyagceEngine.obj
 0001:00019440       ??$_Unfancy@H@std@@YAPAHPAH@Z 0041a440 f i PsyagceEngine.obj
 0001:00019450       ??$_Uninitialized_move@PAHPAHV?$allocator@H@std@@@std@@YAPAHPAH00AAV?$allocator@H@0@@Z 0041a450 f i PsyagceEngine.obj
 0001:000194f0       ??$_Uninitialized_move_al_unchecked@HHV?$allocator@H@std@@@std@@YAPAHPAH00AAV?$allocator@H@0@U_Really_trivial_ptr_iterator_tag@0@U?$integral_constant@_N$00@0@@Z 0041a4f0 f i PsyagceEngine.obj
 0001:00019510       ??$construct@HABH@?$_Default_allocator_traits@V?$allocator@H@std@@@std@@SAXAAV?$allocator@H@1@QAHABH@Z 0041a510 f i PsyagceEngine.obj
 0001:00019550       ??$destroy@H@?$_Default_allocator_traits@V?$allocator@H@std@@@std@@SAXAAV?$allocator@H@1@QAH@Z 0041a550 f i PsyagceEngine.obj
 0001:00019560       ??$emplace_back@ABH@?$vector@HV?$allocator@H@std@@@std@@QAE@ABH@Z 0041a560 f i PsyagceEngine.obj
 0001:00019760       ??$forward@ABH@std@@YAABHABH@Z 0041a760 f i PsyagceEngine.obj
 0001:00019770       ??$move@AAV?$basic_istream@DU?$char_traits@D@std@@@std@@@std@@YA$$QAV?$basic_istream@DU?$char_traits@D@std@@@0@AAV10@@Z 0041a770 f i PsyagceEngine.obj
 0001:00019780       ??$use_facet@V?$ctype@D@std@@@std@@YAABV?$ctype@D@0@ABVlocale@0@@Z 0041a780 f i PsyagceEngine.obj
 0001:000198c0       ??0?$_Vector_alloc@U?$_Vec_base_types@HV?$allocator@H@std@@@std@@@std@@QAE@XZ 0041a8c0 f i PsyagceEngine.obj
 0001:000198f0       ??0?$_Vector_val@U?$_Simple_types@H@std@@@std@@QAE@XZ 0041a8f0 f i PsyagceEngine.obj
 0001:00019930       ??0?$allocator@H@std@@QAE@XZ 0041a930 f i PsyagceEngine.obj
 0001:00019950       ??0?$basic_ofstream@DU?$char_traits@D@std@@@std@@QAE@PBDHH@Z 0041a950 f i PsyagceEngine.obj
 0001:00019aa0       ??0?$vector@HV?$allocator@H@std@@@std@@QAE@XZ 0041aaa0 f i PsyagceEngine.obj
 0001:00019af0       ??0_Sentry_base@?$basic_istream@DU?$char_traits@D@std@@@std@@QAE@AAV12@@Z 0041aaf0 f i PsyagceEngine.obj
 0001:00019b70       ??0_Sentry_base@?$basic_ostream@DU?$char_traits@D@std@@@std@@QAE@AAV12@@Z 0041ab70 f i PsyagceEngine.obj
 0001:00019bf0       ??0sentry@?$basic_istream@DU?$char_traits@D@std@@@std@@QAE@AAV12@_N@Z 0041abf0 f i PsyagceEngine.obj
 0001:00019c80       ??0sentry@?$basic_ostream@DU?$char_traits@D@std@@@std@@QAE@AAV12@@Z 0041ac80 f i PsyagceEngine.obj
 0001:00019d80       ??1?$basic_ofstream@DU?$char_traits@D@std@@@std@@UAE@XZ 0041ad80 f i PsyagceEngine.obj
 0001:00019df0       ??1?$vector@HV?$allocator@H@std@@@std@@QAE@XZ 0041adf0 f i PsyagceEngine.obj
 0001:00019e40       ??1ImageData@@QAE@XZ       0041ae40 f i PsyagceEngine.obj
 0001:00019e80       ??1_Sentry_base@?$basic_istream@DU?$char_traits@D@std@@@std@@QAE@XZ 0041ae80 f i PsyagceEngine.obj
 0001:00019f20       ??1_Sentry_base@?$basic_ostream@DU?$char_traits@D@std@@@std@@QAE@XZ 0041af20 f i PsyagceEngine.obj
 0001:00019fc0       ??1sentry@?$basic_istream@DU?$char_traits@D@std@@@std@@QAE@XZ 0041afc0 f i PsyagceEngine.obj
 0001:00019fe0       ??1sentry@?$basic_ostream@DU?$char_traits@D@std@@@std@@QAE@XZ 0041afe0 f i PsyagceEngine.obj
 0001:0001a050       ??A?$vector@HV?$allocator@H@std@@@std@@QAEAAHI@Z 0041b050 f i PsyagceEngine.obj
 0001:0001a080       ??Bsentry@?$basic_istream@DU?$char_traits@D@std@@@std@@QBE_NXZ 0041b080 f i PsyagceEngine.obj
 0001:0001a0a0       ??Bsentry@?$basic_ostream@DU?$char_traits@D@std@@@std@@QBE_NXZ 0041b0a0 f i PsyagceEngine.obj
 0001:0001a2f0       ??Y?$basic_string@DU?$char_traits@D@std@@V?$allocator@D@2@@std@@QAEAAV01@QBD@Z 0041b2f0 f i PsyagceEngine.obj
 0001:0001a310       ??_D?$basic_ofstream@DU?$char_traits@D@std@@@std@@QAEXXZ 0041b310 f i PsyagceEngine.obj
 0001:0001a33a       ??_E?$basic_ofstream@DU?$char_traits@D@std@@@std@@$4PPPPPPPM@A@AEPAXI@Z 0041b33a f i PsyagceEngine.obj
 0001:0001a350       ??_E?$basic_ofstream@DU?$char_traits@D@std@@@std@@UAEPAXI@Z 0041b350 f i PsyagceEngine.obj
 0001:0001a350       ??_G?$basic_ofstream@DU?$char_traits@D@std@@@std@@UAEPAXI@Z 0041b350 f i PsyagceEngine.obj
 0001:0001a3a0       ??_EPsyagceEngine@@UAEPAXI@Z 0041b3a0 f i PsyagceEngine.obj
 0001:0001a3a0       ??_GPsyagceEngine@@UAEPAXI@Z 0041b3a0 f i PsyagceEngine.obj
 0001:0001a3e0       ?DrawAllTiles@TileManager@@QBEXPAVBaseEngine@@PAUSDL_Surface@@HHHH@Z 0041b3e0 f i PsyagceEngine.obj
 0001:0001a430       ?DrawBackgroundRectangle@BaseEngine@@QAEXHHHHI@Z 0041b430 f i PsyagceEngine.obj
 0001:0001a470       ?DrawableObjectsChanged@BaseEngine@@QAEXXZ 0041b470 f i PsyagceEngine.obj
 0001:0001a490       ?GetBackground@BaseEngine@@QAEPAUSDL_Surface@@XZ 0041b490 f i PsyagceEngine.obj
 0001:0001a4b0       ?GetTileHeight@TileManager@@QBEHXZ 0041b4b0 f i PsyagceEngine.obj
 0001:0001a4d0       ?GetTileWidth@TileManager@@QBEHXZ 0041b4d0 f i PsyagceEngine.obj
 0001:0001a4f0       ?GetWindowHeight@BaseEngine@@QBEHXZ 0041b4f0 f i PsyagceEngine.obj
 0001:0001a510       ?IncreaseTimeOffset@BaseEngine@@QAEXH@Z 0041b510 f i PsyagceEngine.obj
 0001:0001a540       ?IsValidTilePosition@TileManager@@QBE_NHH@Z 0041b540 f i PsyagceEngine.obj
 0001:0001a5d0       ?SetBaseTilesPositionOnScreen@TileManager@@QAEXHH@Z 0041b5d0 f i PsyagceEngine.obj
 0001:0001a600       ?SetExitWithCode@BaseEngine@@QAEXH@Z 0041b600 f i PsyagceEngine.obj
 0001:0001a6e0       ?SetValue@TileManager@@QAEXHHH@Z 0041b6e0 f i PsyagceEngine.obj
 0001:0001a750       ?_Calculate_growth@?$vector@HV?$allocator@H@std@@@std@@ABEII@Z 0041b750 f i PsyagceEngine.obj
 0001:0001a840       ?_Destroy@?$vector@HV?$allocator@H@std@@@std@@AAEXPAH0@Z 0041b840 f i PsyagceEngine.obj
 0001:0001a8b0       ?_Get_data@?$_Vector_alloc@U?$_Vec_base_types@HV?$allocator@H@std@@@std@@@std@@QAEAAV?$_Vector_val@U?$_Simple_types@H@std@@@2@XZ 0041b8b0 f i PsyagceEngine.obj
 0001:0001a8d0       ?_Get_data@?$_Vector_alloc@U?$_Vec_base_types@HV?$allocator@H@std@@@std@@@std@@QBEABV?$_Vector_val@U?$_Simple_types@H@std@@@2@XZ 0041b8d0 f i PsyagceEngine.obj
 0001:0001a8f0       ?_Get_first@?$_Compressed_pair@V?$allocator@H@std@@V?$_Vector_val@U?$_Simple_types@H@std@@@2@$00@std@@QAEAAV?$allocator@H@2@XZ 0041b8f0 f i PsyagceEngine.obj
 0001:0001a910       ?_Get_first@?$_Compressed_pair@V?$allocator@H@std@@V?$_Vector_val@U?$_Simple_types@H@std@@@2@$00@std@@QBEABV?$allocator@H@2@XZ 0041b910 f i PsyagceEngine.obj
 0001:0001a930       ?_Get_second@?$_Compressed_pair@V?$allocator@H@std@@V?$_Vector_val@U?$_Simple_types@H@std@@@2@$00@std@@QAEAAV?$_Vector_val@U?$_Simple_types@H@std@@@2@XZ 0041b930 f i PsyagceEngine.obj
 0001:0001a950       ?_Get_second@?$_Compressed_pair@V?$allocator@H@std@@V?$_Vector_val@U?$_Simple_types@H@std@@@2@$00@std@@QBEABV?$_Vector_val@U?$_Simple_types@H@std@@@2@XZ 0041b950 f i PsyagceEngine.obj
 0001:0001a970       ?_Getal@?$_Vector_alloc@U?$_Vec_base_types@HV?$allocator@H@std@@@std@@@std@@QAEAAV?$allocator@H@2@XZ 0041b970 f i PsyagceEngine.obj
 0001:0001a990       ?_Getal@?$_Vector_alloc@U?$_Vec_base_types@HV?$allocator@H@std@@@std@@@std@@QBEABV?$allocator@H@2@XZ 0041b990 f i PsyagceEngine.obj
 0001:0001aa00       ?_Myend@?$_Vector_alloc@U?$_Vec_base_types@HV?$allocator@H@std@@@std@@@std@@QAEAAPAHXZ 0041ba00 f i PsyagceEngine.obj
 0001:0001aa20       ?_Myend@?$_Vector_alloc@U?$_Vec_base_types@HV?$allocator@H@std@@@std@@@std@@QBEABQAHXZ 0041ba20 f i PsyagceEngine.obj
 0001:0001aa40       ?_Myfirst@?$_Vector_alloc@U?$_Vec_base_types@HV?$allocator@H@std@@@std@@@std@@QAEAAPAHXZ 0041ba40 f i PsyagceEngine.obj
 0001:0001aa60       ?_Myfirst@?$_Vector_alloc@U?$_Vec_base_types@HV?$allocator@H@std@@@std@@@std@@QBEABQAHXZ 0041ba60 f i PsyagceEngine.obj
 0001:0001aa80       ?_Mylast@?$_Vector_alloc@U?$_Vec_base_types@HV?$allocator@H@std@@@std@@@std@@QAEAAPAHXZ 0041ba80 f i PsyagceEngine.obj
 0001:0001aaa0       ?_Mylast@?$_Vector_alloc@U?$_Vec_base_types@HV?$allocator@H@std@@@std@@@std@@QBEABQAHXZ 0041baa0 f i PsyagceEngine.obj
 0001:0001aad0       ?_Orphan_range@?$vector@HV?$allocator@H@std@@@std@@ABEXPAH0@Z 0041bad0 f i PsyagceEngine.obj
 0001:0001abc0       ?_Umove_if_noexcept1@?$vector@HV?$allocator@H@std@@@std@@AAEXPAH00U?$integral_constant@_N$00@2@@Z 0041bbc0 f i PsyagceEngine.obj
 0001:0001ac20       ?_Xlength@?$vector@HV?$allocator@H@std@@@std@@CAXXZ 0041bc20 f i PsyagceEngine.obj
 0001:0001ac50       ?allocate@?$allocator@H@std@@QAEPAHI@Z 0041bc50 f i PsyagceEngine.obj
 0001:0001ac90       ?append@?$basic_string@DU?$char_traits@D@std@@V?$allocator@D@2@@std@@QAEAAV12@QBD@Z 0041bc90 f i PsyagceEngine.obj
 0001:0001acd0       ?capacity@?$vector@HV?$allocator@H@std@@@std@@QBEIXZ 0041bcd0 f i PsyagceEngine.obj
 0001:0001ad10       ?close@?$basic_ifstream@DU?$char_traits@D@std@@@std@@QAEXXZ 0041bd10 f i PsyagceEngine.obj
 0001:0001ad50       ?close@?$basic_ofstream@DU?$char_traits@D@std@@@std@@QAEXXZ 0041bd50 f i PsyagceEngine.obj
 0001:0001ade0       ?deallocate@?$allocator@H@std@@QAEXQAHI@Z 0041bde0 f i PsyagceEngine.obj
 0001:0001ae30       ?erase@?$basic_string@DU?$char_traits@D@std@@V?$allocator@D@2@@std@@QAEAAV12@I@Z 0041be30 f i PsyagceEngine.obj
 0001:0001ae70       ?insert@?$basic_string@DU?$char_traits@D@std@@V?$allocator@D@2@@std@@QAEAAV12@IQBD@Z 0041be70 f i PsyagceEngine.obj
 0001:0001b040       ?max_size@?$_Default_allocator_traits@V?$allocator@H@std@@@std@@SAIABV?$allocator@H@2@@Z 0041c040 f i PsyagceEngine.obj
 0001:0001b0b0       ?push_back@?$vector@HV?$allocator@H@std@@@std@@QAEXABH@Z 0041c0b0 f i PsyagceEngine.obj
 0001:0001b0f0       ??0PsyagceTileManager@@QAE@XZ 0041c0f0 f   PsyagceTileManager.obj
 0001:0001b210       ??1PsyagceTileManager@@QAE@XZ 0041c210 f   PsyagceTileManager.obj
 0001:0001b300       ?DrawTileAt@PsyagceTileManager@@UBEXPAVBaseEngine@@PAUSDL_Surface@@HHHH@Z 0041c300 f   PsyagceTileManager.obj
 0001:0001b4a0       ?SetID@PsyagceTileManager@@QAEXH@Z 0041c4a0 f   PsyagceTileManager.obj
 0001:0001b4c0       ?FreeFrames@PsyagceTileManager@@QAEXXZ 0041c4c0 f   PsyagceTileManager.obj
 0001:0001b620       ??0TileManager@@QAE@HH@Z   0041c620 f i PsyagceTileManager.obj
 0001:0001b6a0       ??1TileManager@@QAE@XZ     0041c6a0 f i PsyagceTileManager.obj
 0001:0001b6f0       ?DrawTile@TileManager@@UBEXPAVBaseEngine@@PAUSDL_Surface@@HH@Z 0041c6f0 f i PsyagceTileManager.obj
 0001:0001b760       ?DrawTile@TileManager@@UBEXPAVBaseEngine@@PAUSDL_Surface@@HHHH@Z 0041c760 f i PsyagceTileManager.obj
 0001:0001b7b0       ?GetValue@TileManager@@QBEHHH@Z 0041c7b0 f i PsyagceTileManager.obj
 0001:0001b7e0       ?SetupBackgroundBuffer@SimpleDemo@@UAEXXZ 0041c7e0 f   SimpleDemo.obj
 0001:0001b920       ?InitialiseObjects@SimpleDemo@@UAEHXZ 0041c920 f   SimpleDemo.obj
 0001:0001b9d0       ?UnDrawStrings@SimpleDemo@@UAEXXZ 0041c9d0 f   SimpleDemo.obj
 0001:0001ba00       ?DrawStringsUnderneath@SimpleDemo@@UAEXXZ 0041ca00 f   SimpleDemo.obj
 0001:0001ba80       ?DrawStringsOnTop@SimpleDemo@@UAEXXZ 0041ca80 f   SimpleDemo.obj
 0001:0001bb10       ?GameAction@SimpleDemo@@UAEXXZ 0041cb10 f   SimpleDemo.obj
 0001:0001bb50       ?MouseDown@SimpleDemo@@UAEXHHH@Z 0041cb50 f   SimpleDemo.obj
 0001:0001bb80       ?KeyDown@SimpleDemo@@UAEXH@Z 0041cb80 f   SimpleDemo.obj
 0001:0001bca0       ??0SimpleShape@@QAE@PAVSimpleDemo@@@Z 0041cca0 f i SimpleDemo.obj
 0001:0001bde0       ??1SimpleShape@@UAE@XZ     0041cde0 f i SimpleDemo.obj
 0001:0001be00       ??_ESimpleShape@@UAEPAXI@Z 0041ce00 f i SimpleDemo.obj
 0001:0001be00       ??_GSimpleShape@@UAEPAXI@Z 0041ce00 f i SimpleDemo.obj
 0001:0001be40       ?DoUpdate@SimpleShape@@UAEXH@Z 0041ce40 f i SimpleDemo.obj
 0001:0001c290       ?Draw@SimpleShape@@UAEXXZ  0041d290 f i SimpleDemo.obj
 0001:0001c340       ?SetBackgroundPixel@BaseEngine@@QAEXHHI@Z 0041d340 f i SimpleDemo.obj
 0001:0001c420       ?SetPixel@BaseEngine@@QAEXHHIPAUSDL_Surface@@@Z 0041d420 f i SimpleDemo.obj
 0001:0001c510       ??0SpriteObject@@QAE@PAVBaseEngine@@HH@Z 0041d510 f   SpriteObject.obj
 0001:0001c620       ??1SpriteObject@@UAE@XZ    0041d620 f   SpriteObject.obj
 0001:0001c700       ?Jump@SpriteObject@@UAEXH@Z 0041d700 f   SpriteObject.obj
 0001:0001c7a0       ?FreeFrames@SpriteObject@@UAEXXZ 0041d7a0 f   SpriteObject.obj
 0001:0001c7f0       ?Dying@SpriteObject@@QAEXXZ 0041d7f0 f   SpriteObject.obj
 0001:0001c800       ?isEnemy@SpriteObject@@UAE_NXZ 0041d800 f   SpriteObject.obj
 0001:0001c810       ?InitStats@SpriteObject@@UAEXXZ 0041d810 f   SpriteObject.obj
 0001:0001c820       ?IncrementFrame@SpriteObject@@QAEXXZ 0041d820 f   SpriteObject.obj
 0001:0001c860       ?UpdateFrame@SpriteObject@@QAEXH@Z 0041d860 f   SpriteObject.obj
 0001:0001c880       ?UpdateHealth@SpriteObject@@QAEXH@Z 0041d880 f   SpriteObject.obj
 0001:0001c8c0       ?setFight@SpriteObject@@UAEX_N@Z 0041d8c0 f   SpriteObject.obj
 0001:0001c8e0       ?Gravity@SpriteObject@@UAEXXZ 0041d8e0 f   SpriteObject.obj
 0001:0001ca20       ?updatePosition@SpriteObject@@QAEXHH@Z 0041da20 f   SpriteObject.obj
 0001:0001ca40       ?ReturnX@SpriteObject@@QAEHXZ 0041da40 f   SpriteObject.obj
 0001:0001ca60       ?ReturnY@SpriteObject@@QAEHXZ 0041da60 f   SpriteObject.obj
 0001:0001ca80       ?SetX@SpriteObject@@QAEXH@Z 0041da80 f   SpriteObject.obj
 0001:0001caa0       ?SetY@SpriteObject@@QAEXH@Z 0041daa0 f   SpriteObject.obj
 0001:0001cc20       ??_ESpriteObject@@UAEPAXI@Z 0041dc20 f i SpriteObject.obj
 0001:0001cc20       ??_GSpriteObject@@UAEPAXI@Z 0041dc20 f i SpriteObject.obj
 0001:0001cc60       ??0StatsBar@@QAE@PAVBaseEngine@@HV?$basic_string@DU?$char_traits@D@std@@V?$allocator@D@2@@std@@HH@Z 0041dc60 f   StatsBar.obj
 0001:0001ce00       ??1StatsBar@@UAE@XZ        0041de00 f   StatsBar.obj
 0001:0001ce40       ?Draw@StatsBar@@UAEXXZ     0041de40 f   StatsBar.obj
 0001:0001cf90       ?DoUpdate@StatsBar@@UAEXH@Z 0041df90 f   StatsBar.obj
 0001:0001cfa0       ?UpdateStats@StatsBar@@QAEXHHH@Z 0041dfa0 f   StatsBar.obj
 0001:0001d4d0       ??_EStatsBar@@UAEPAXI@Z    0041e4d0 f i StatsBar.obj
 0001:0001d4d0       ??_GStatsBar@@UAEPAXI@Z    0041e4d0 f i StatsBar.obj
 0001:0001d510       ?main2@@YAHHPAPAD@Z        0041e510 f   test.obj
 0001:0001d520       ?UpdateTileAt@TileManager@@QAEXPAVBaseEngine@@HHHHH@Z 0041e520 f   TileManager.obj
 0001:0001d590       ?DrawAllTilesAt@TileManager@@QBEXPAVBaseEngine@@PAUSDL_Surface@@HHHHHH@Z 0041e590 f   TileManager.obj
 0001:0001d620       ?DrawTileAt@TileManager@@UBEXPAVBaseEngine@@PAUSDL_Surface@@HHHH@Z 0041e620 f   TileManager.obj
 0001:0001d700       ??0BouncingBall@@QAE@PAVBouncingBallMain@@HHHHPBDHH@Z 0041e700 f   BouncingBall.obj
 0001:0001d820       ??1BouncingBall@@UAE@XZ    0041e820 f   BouncingBall.obj
 0001:0001d840       ?Draw@BouncingBall@@UAEXXZ 0041e840 f   BouncingBall.obj
 0001:0001dad0       ?DoUpdate@BouncingBall@@UAEXH@Z 0041ead0 f   BouncingBall.obj
 0001:0001daf0       ??0BouncingBall1@@QAE@PAVBouncingBallMain@@HHHHPBDHHPAVTileManager@@@Z 0041eaf0 f   BouncingBall.obj
 0001:0001db80       ?SetMovement@BouncingBall1@@QAEXHHHHHHH@Z 0041eb80 f   BouncingBall.obj
 0001:0001dbf0       ?DoUpdate@BouncingBall1@@UAEXH@Z 0041ebf0 f   BouncingBall.obj
 0001:0001dd10       ??0BouncingBall2@@QAE@PAVBouncingBallMain@@HHHHPBDHH@Z 0041ed10 f   BouncingBall.obj
 0001:0001dd90       ?SetPosition@BouncingBall2@@QAEXNN@Z 0041ed90 f   BouncingBall.obj
 0001:0001ddc0       ?SetSpeed@BouncingBall2@@QAEXNN@Z 0041edc0 f   BouncingBall.obj
 0001:0001ddf0       ?DoUpdate@BouncingBall2@@UAEXH@Z 0041edf0 f   BouncingBall.obj
 0001:0001e3c0       ??0MovementPosition@@QAE@XZ 0041f3c0 f i BouncingBall.obj
 0001:0001e440       ??1BouncingBall1@@UAE@XZ   0041f440 f i BouncingBall.obj
 0001:0001e460       ??1BouncingBall2@@UAE@XZ   0041f460 f i BouncingBall.obj
 0001:0001e480       ??_GBouncingBall1@@UAEPAXI@Z 0041f480 f i BouncingBall.obj
 0001:0001e480       ??_EBouncingBall1@@UAEPAXI@Z 0041f480 f i BouncingBall.obj
 0001:0001e4c0       ??_GBouncingBall2@@UAEPAXI@Z 0041f4c0 f i BouncingBall.obj
 0001:0001e4c0       ??_EBouncingBall2@@UAEPAXI@Z 0041f4c0 f i BouncingBall.obj
 0001:0001e500       ??_GBouncingBall@@UAEPAXI@Z 0041f500 f i BouncingBall.obj
 0001:0001e500       ??_EBouncingBall@@UAEPAXI@Z 0041f500 f i BouncingBall.obj
 0001:0001e540       ?Calculate@MovementPosition@@QAEXH@Z 0041f540 f i BouncingBall.obj
 0001:0001e630       ?GetTileXForPositionOnScreen@TileManager@@QBEHH@Z 0041f630 f i BouncingBall.obj
 0001:0001e660       ?GetTileYForPositionOnScreen@TileManager@@QBEHH@Z 0041f660 f i BouncingBall.obj
 0001:0001e690       ?GetX@MovementPosition@@QBEHXZ 0041f690 f i BouncingBall.obj
 0001:0001e6b0       ?GetY@MovementPosition@@QBEHXZ 0041f6b0 f i BouncingBall.obj
 0001:0001e6d0       ?HasMovementFinished@MovementPosition@@QBE_NH@Z 0041f6d0 f i BouncingBall.obj
 0001:0001e710       ?Reverse@MovementPosition@@QAEXXZ 0041f710 f i BouncingBall.obj
 0001:0001e7a0       ?Setup@MovementPosition@@QAEXHHHHHH@Z 0041f7a0 f i BouncingBall.obj
 0001:0001e810       ?UpdateTile@TileManager@@QAEXPAVBaseEngine@@HHH@Z 0041f810 f i BouncingBall.obj
 0001:0001e870       ?SetupBackgroundBuffer@BouncingBallMain@@UAEXXZ 0041f870 f   BouncingBallMain.obj
 0001:0001ef90       ?InitialiseObjects@BouncingBallMain@@UAEHXZ 0041ff90 f   BouncingBallMain.obj
 0001:0001f230       ?DrawStringsUnderneath@BouncingBallMain@@UAEXXZ 00420230 f   BouncingBallMain.obj
 0001:0001f270       ?MouseDown@BouncingBallMain@@UAEXHHH@Z 00420270 f   BouncingBallMain.obj
 0001:0001f2b0       ?KeyDown@BouncingBallMain@@UAEXH@Z 004202b0 f   BouncingBallMain.obj
 0001:0001f570       ?DrawBackgroundLine@BaseEngine@@QAEXHHHHI@Z 00420570 f i BouncingBallMain.obj
 0001:0001f5e0       ?DrawBackgroundPolygon@BaseEngine@@QAEXNNNNNNNNNNNNNNI@Z 004205e0 f i BouncingBallMain.obj
 0001:0001f6e0       ?DrawBackgroundPolygon@BaseEngine@@QAEXNNNNNNNNNNNNNNNNI@Z 004206e0 f i BouncingBallMain.obj
 0001:0001f820       ?DrawBackgroundTriangle@BaseEngine@@QAEXHHHHHHI@Z 00420820 f i BouncingBallMain.obj
 0001:0001f8b0       ?DrawBackgroundVerticalSidedRegion@BaseEngine@@QAEXNNNNNNI@Z 004208b0 f i BouncingBallMain.obj
 0001:0001f940       ??0Demo1Main@@QAE@XZ       00420940 f   Demo1Main.obj
 0001:0001f960       ??1Demo1Main@@UAE@XZ       00420960 f   Demo1Main.obj
 0001:0001f980       ?SetupBackgroundBuffer@Demo1Main@@UAEXXZ 00420980 f   Demo1Main.obj
 0001:0001f9c0       ??_EDemo1Main@@UAEPAXI@Z   004209c0 f i Demo1Main.obj
 0001:0001f9c0       ??_GDemo1Main@@UAEPAXI@Z   004209c0 f i Demo1Main.obj
 0001:0001fa00       ??0Demo2Main@@QAE@XZ       00420a00 f   Demo2Main.obj
 0001:0001fa70       ??1Demo2Main@@UAE@XZ       00420a70 f   Demo2Main.obj
 0001:0001faa0       ?SetupBackgroundBuffer@Demo2Main@@UAEXXZ 00420aa0 f   Demo2Main.obj
 0001:0001fb50       ?InitialiseObjects@Demo2Main@@UAEHXZ 00420b50 f   Demo2Main.obj
 0001:0001fc20       ?DrawStringsUnderneath@Demo2Main@@UAEXXZ 00420c20 f   Demo2Main.obj
 0001:0001fc60       ?GameAction@Demo2Main@@UAEXXZ 00420c60 f   Demo2Main.obj
 0001:0001fca0       ?MouseDown@Demo2Main@@UAEXHHH@Z 00420ca0 f   Demo2Main.obj
 0001:0001fcb0       ?KeyDown@Demo2Main@@UAEXH@Z 00420cb0 f   Demo2Main.obj
 0001:0001fd90       ??_GDemo2Main@@UAEPAXI@Z   00420d90 f i Demo2Main.obj
 0001:0001fd90       ??_EDemo2Main@@UAEPAXI@Z   00420d90 f i Demo2Main.obj
 0001:0001fdd0       ?IsTimeToAct@BaseEngine@@QBE_NXZ 00420dd0 f i Demo2Main.obj
 0001:0001fe10       ??0Demo2Object@@QAE@PAVDemo2Main@@@Z 00420e10 f   Demo2Object.obj
 0001:0001ff20       ??1Demo2Object@@UAE@XZ     00420f20 f   Demo2Object.obj
 0001:0001ff40       ?Draw@Demo2Object@@UAEXXZ  00420f40 f   Demo2Object.obj
 0001:0001ffa0       ?DoUpdate@Demo2Object@@UAEXH@Z 00420fa0 f   Demo2Object.obj
 0001:00020110       ??_EDemo2Object@@UAEPAXI@Z 00421110 f i Demo2Object.obj
 0001:00020110       ??_GDemo2Object@@UAEPAXI@Z 00421110 f i Demo2Object.obj
 0001:00020150       ??0Demo2TileManager@@QAE@XZ 00421150 f   Demo2TileManager.obj
 0001:00020180       ??1Demo2TileManager@@QAE@XZ 00421180 f   Demo2TileManager.obj
 0001:000201a0       ?DrawTileAt@Demo2TileManager@@UAEXPAVBaseEngine@@PAUSDL_Surface@@HHHH@Z 004211a0 f   Demo2TileManager.obj
 0001:00020230       ??0Demo3Main@@QAE@XZ       00421230 f   Demo3Main.obj
 0001:000202a0       ??1Demo3Main@@UAE@XZ       004212a0 f   Demo3Main.obj
 0001:000202d0       ?SetupBackgroundBuffer@Demo3Main@@UAEXXZ 004212d0 f   Demo3Main.obj
 0001:00020450       ?InitialiseObjects@Demo3Main@@UAEHXZ 00421450 f   Demo3Main.obj
 0001:00020650       ?DrawStringsUnderneath@Demo3Main@@UAEXXZ 00421650 f   Demo3Main.obj
 0001:00020690       ?GameAction@Demo3Main@@UAEXXZ 00421690 f   Demo3Main.obj
 0001:000206d0       ?MouseDown@Demo3Main@@UAEXHHH@Z 004216d0 f   Demo3Main.obj
 0001:000206e0       ?KeyDown@Demo3Main@@UAEXH@Z 004216e0 f   Demo3Main.obj
 0001:00020840       ??_GDemo3Main@@UAEPAXI@Z   00421840 f i Demo3Main.obj
 0001:00020840       ??_EDemo3Main@@UAEPAXI@Z   00421840 f i Demo3Main.obj
 0001:00020880       ??0Demo3Object@@QAE@PAVDemo3Main@@HH@Z 00421880 f   Demo3Object.obj
 0001:00020980       ??1Demo3Object@@UAE@XZ     00421980 f   Demo3Object.obj
 0001:000209a0       ?Draw@Demo3Object@@UAEXXZ  004219a0 f   Demo3Object.obj
 0001:00020a10       ?DoUpdate@Demo3Object@@UAEXH@Z 00421a10 f   Demo3Object.obj
 0001:00020d00       ??_GDemo3Object@@UAEPAXI@Z 00421d00 f i Demo3Object.obj
 0001:00020d00       ??_EDemo3Object@@UAEPAXI@Z 00421d00 f i Demo3Object.obj
 0001:00020d40       ?GetTileManager@Demo3Main@@QAEAAVDemo3TileManager@@XZ 00421d40 f i Demo3Object.obj
 0001:00020d60       ?GetXDiffForDirection@Demo3Object@@QAEHH@Z 00421d60 f i Demo3Object.obj
 0001:00020dd0       ?GetYDiffForDirection@Demo3Object@@QAEHH@Z 00421dd0 f i Demo3Object.obj
 0001:00020e40       ??0Demo3ObjectFinished@@QAE@PAVDemo3Main@@HH@Z 00421e40 f   Demo3ObjectFinished.obj
 0001:00020f40       ??1Demo3ObjectFinished@@UAE@XZ 00421f40 f   Demo3ObjectFinished.obj
 0001:00020f60       ?Draw@Demo3ObjectFinished@@UAEXXZ 00421f60 f   Demo3ObjectFinished.obj
 0001:00021010       ?DoUpdate@Demo3ObjectFinished@@UAEXH@Z 00422010 f   Demo3ObjectFinished.obj
 0001:00021440       ??_EDemo3ObjectFinished@@UAEPAXI@Z 00422440 f i Demo3ObjectFinished.obj
 0001:00021440       ??_GDemo3ObjectFinished@@UAEPAXI@Z 00422440 f i Demo3ObjectFinished.obj
 0001:00021480       ?GetXDiffForDirection@Demo3ObjectFinished@@QAEHH@Z 00422480 f i Demo3ObjectFinished.obj
 0001:000214f0       ?GetYDiffForDirection@Demo3ObjectFinished@@QAEHH@Z 004224f0 f i Demo3ObjectFinished.obj
 0001:00021560       ??0Demo3TileManager@@QAE@XZ 00422560 f   Demo3TileManager.obj
 0001:00021590       ??1Demo3TileManager@@QAE@XZ 00422590 f   Demo3TileManager.obj
 0001:000215b0       ?DrawTileAt@Demo3TileManager@@UBEXPAVBaseEngine@@PAUSDL_Surface@@HHHH@Z 004225b0 f   Demo3TileManager.obj
 0001:000217b0       ??0Demo4Main@@QAE@XZ       004227b0 f   Demo4Main.obj
 0001:00021820       ??1Demo4Main@@UAE@XZ       00422820 f   Demo4Main.obj
 0001:00021850       ?SetupBackgroundBuffer@Demo4Main@@UAEXXZ 00422850 f   Demo4Main.obj
 0001:00021a40       ?InitialiseObjects@Demo4Main@@UAEHXZ 00422a40 f   Demo4Main.obj
 0001:00021c40       ?DrawStringsUnderneath@Demo4Main@@UAEXXZ 00422c40 f   Demo4Main.obj
 0001:00021d10       ?GameAction@Demo4Main@@UAEXXZ 00422d10 f   Demo4Main.obj
 0001:00021d70       ?MouseDown@Demo4Main@@UAEXHHH@Z 00422d70 f   Demo4Main.obj
 0001:00021d80       ?KeyDown@Demo4Main@@UAEXH@Z 00422d80 f   Demo4Main.obj
 0001:00021e80       ?UndrawObjects@Demo4Main@@UAEXXZ 00422e80 f   Demo4Main.obj
 0001:00021ea0       ?DrawObjects@Demo4Main@@UAEXXZ 00422ea0 f   Demo4Main.obj
 0001:00022090       ??_EDemo4Main@@UAEPAXI@Z   00423090 f i Demo4Main.obj
 0001:00022090       ??_GDemo4Main@@UAEPAXI@Z   00423090 f i Demo4Main.obj
 0001:000220d0       ??0Demo4Object@@QAE@PAVDemo4Main@@HH@Z 004230d0 f   Demo4Object.obj
 0001:000221d0       ??1Demo4Object@@UAE@XZ     004231d0 f   Demo4Object.obj
 0001:000221f0       ?Draw@Demo4Object@@UAEXXZ  004231f0 f   Demo4Object.obj
 0001:000222b0       ?DoUpdate@Demo4Object@@UAEXH@Z 004232b0 f   Demo4Object.obj
 0001:000228f0       ??_EDemo4Object@@UAEPAXI@Z 004238f0 f i Demo4Object.obj
 0001:000228f0       ??_GDemo4Object@@UAEPAXI@Z 004238f0 f i Demo4Object.obj
 0001:00022930       ?GetTileManager@Demo4Main@@QAEAAVDemo4TileManager@@XZ 00423930 f i Demo4Object.obj
 0001:00022950       ?GetXCentre@DisplayableObject@@QBEHXZ 00423950 f i Demo4Object.obj
 0001:00022980       ?GetXDiffForDirection@Demo4Object@@QAEHH@Z 00423980 f i Demo4Object.obj
 0001:000229f0       ?GetYCentre@DisplayableObject@@QBEHXZ 004239f0 f i Demo4Object.obj
 0001:00022a20       ?GetYDiffForDirection@Demo4Object@@QAEHH@Z 00423a20 f i Demo4Object.obj
 0001:00022a90       ??0Demo4TileManager@@QAE@XZ 00423a90 f   Demo4TileManager.obj
 0001:00022ac0       ??1Demo4TileManager@@QAE@XZ 00423ac0 f   Demo4TileManager.obj
 0001:00022ae0       ?DrawTileAt@Demo4TileManager@@UBEXPAVBaseEngine@@PAUSDL_Surface@@HHHH@Z 00423ae0 f   Demo4TileManager.obj
 0001:00022cda       _SDL_GetError              00423cda f   SDL2:SDL2.dll
 0001:00022ce0       _SDL_CreateRGBSurface      00423ce0 f   SDL2:SDL2.dll
 0001:00022ce6       _SDL_FreeSurface           00423ce6 f   SDL2:SDL2.dll
 0001:00022cec       _SDL_LockSurface           00423cec f   SDL2:SDL2.dll
 0001:00022cf2       _SDL_UnlockSurface         00423cf2 f   SDL2:SDL2.dll
 0001:00022cf8       _SDL_FillRect              00423cf8 f   SDL2:SDL2.dll
 0001:00022cfe       _SDL_UpperBlit             00423cfe f   SDL2:SDL2.dll
 0001:00022d04       _SDL_CreateWindow          00423d04 f   SDL2:SDL2.dll
 0001:00022d0a       _SDL_PollEvent             00423d0a f   SDL2:SDL2.dll
 0001:00022d10       _SDL_CreateRenderer        00423d10 f   SDL2:SDL2.dll
 0001:00022d16       _SDL_CreateTexture         00423d16 f   SDL2:SDL2.dll
 0001:00022d1c       _SDL_UpdateTexture         00423d1c f   SDL2:SDL2.dll
 0001:00022d22       _SDL_RenderCopy            00423d22 f   SDL2:SDL2.dll
 0001:00022d28       _SDL_RenderPresent         00423d28 f   SDL2:SDL2.dll
 0001:00022d2e       _SDL_GetTicks              00423d2e f   SDL2:SDL2.dll
 0001:00022d34       _SDL_Delay                 00423d34 f   SDL2:SDL2.dll
 0001:00022d3a       _SDL_Init                  00423d3a f   SDL2:SDL2.dll
 0001:00022d40       _SDL_Quit                  00423d40 f   SDL2:SDL2.dll
 0001:00022d46       _IMG_Load                  00423d46 f   SDL2_image:SDL2_image.dll
 0001:00022d4c       _TTF_Init                  00423d4c f   SDL2_ttf:SDL2_ttf.dll
 0001:00022d52       _TTF_RenderText_Solid      00423d52 f   SDL2_ttf:SDL2_ttf.dll
 0001:00022d58       _TTF_Quit                  00423d58 f   SDL2_ttf:SDL2_ttf.dll
 0001:00022d5e       _TTF_OpenFont              00423d5e f   SDL2_ttf:SDL2_ttf.dll
 0001:00022d64       _TTF_CloseFont             00423d64 f   SDL2_ttf:SDL2_ttf.dll
 0001:00022d6a       ??0_Lockit@std@@QAE@H@Z    00423d6a f   msvcprt:MSVCP140.dll
 0001:00022d70       ??1_Lockit@std@@QAE@XZ     00423d70 f   msvcprt:MSVCP140.dll
 0001:00022d76       ?_Xlength_error@std@@YAXPBD@Z 00423d76 f   msvcprt:MSVCP140.dll
 0001:00022d7c       ?_Xout_of_range@std@@YAXPBD@Z 00423d7c f   msvcprt:MSVCP140.dll
 0001:00022d82       ??0_Fac_node@std@@QAE@PAU01@PAV_Facet_base@1@@Z 00423d82 f i msvcprt:locale0_implib.obj
 0001:00022d9b       ??1_Fac_node@std@@QAE@XZ   00423d9b f i msvcprt:locale0_implib.obj
 0001:00022e11       ??1_Fac_tidy_reg_t@std@@QAE@XZ 00423e11 f i msvcprt:locale0_implib.obj
 0001:00022e41       ??_G_Fac_node@std@@QAEPAXI@Z 00423e41 f i msvcprt:locale0_implib.obj
 0001:00022e6b       ?_Facet_Register@std@@YAXPAV_Facet_base@1@@Z 00423e6b f   msvcprt:locale0_implib.obj
 0001:00022ea4       ??Bid@locale@std@@QAEIXZ   00423ea4 f   msvcprt:MSVCP140.dll
 0001:00022eaa       ?_Getgloballocale@locale@std@@CAPAV_Locimp@12@XZ 00423eaa f   msvcprt:MSVCP140.dll
 0001:00022eb0       ?always_noconv@codecvt_base@std@@QBE_NXZ 00423eb0 f   msvcprt:MSVCP140.dll
 0001:00022eb6       ?in@?$codecvt@DDU_Mbstatet@@@std@@QBEHAAU_Mbstatet@@PBD1AAPBDPAD3AAPAD@Z 00423eb6 f   msvcprt:MSVCP140.dll
 0001:00022ebc       ?out@?$codecvt@DDU_Mbstatet@@@std@@QBEHAAU_Mbstatet@@PBD1AAPBDPAD3AAPAD@Z 00423ebc f   msvcprt:MSVCP140.dll
 0001:00022ec2       ?unshift@?$codecvt@DDU_Mbstatet@@@std@@QBEHAAU_Mbstatet@@PAD1AAPAD@Z 00423ec2 f   msvcprt:MSVCP140.dll
 0001:00022ec8       ?_Getcat@?$codecvt@DDU_Mbstatet@@@std@@SAIPAPBVfacet@locale@2@PBV42@@Z 00423ec8 f   msvcprt:MSVCP140.dll
 0001:00022ece       ??Bios_base@std@@QBE_NXZ   00423ece f   msvcprt:MSVCP140.dll
 0001:00022ed4       ??0?$basic_streambuf@DU?$char_traits@D@std@@@std@@IAE@XZ 00423ed4 f   msvcprt:MSVCP140.dll
 0001:00022eda       ??1?$basic_streambuf@DU?$char_traits@D@std@@@std@@UAE@XZ 00423eda f   msvcprt:MSVCP140.dll
 0001:00022ee0       ?getloc@?$basic_streambuf@DU?$char_traits@D@std@@@std@@QBE?AVlocale@2@XZ 00423ee0 f   msvcprt:MSVCP140.dll
 0001:00022ee6       ?eback@?$basic_streambuf@DU?$char_traits@D@std@@@std@@IBEPADXZ 00423ee6 f   msvcprt:MSVCP140.dll
 0001:00022eec       ?gptr@?$basic_streambuf@DU?$char_traits@D@std@@@std@@IBEPADXZ 00423eec f   msvcprt:MSVCP140.dll
 0001:00022ef2       ?pptr@?$basic_streambuf@DU?$char_traits@D@std@@@std@@IBEPADXZ 00423ef2 f   msvcprt:MSVCP140.dll
 0001:00022ef8       ?egptr@?$basic_streambuf@DU?$char_traits@D@std@@@std@@IBEPADXZ 00423ef8 f   msvcprt:MSVCP140.dll
 0001:00022efe       ?setg@?$basic_streambuf@DU?$char_traits@D@std@@@std@@IAEXPAD00@Z 00423efe f   msvcprt:MSVCP140.dll
 0001:00022f04       ?epptr@?$basic_streambuf@DU?$char_traits@D@std@@@std@@IBEPADXZ 00423f04 f   msvcprt:MSVCP140.dll
 0001:00022f0a       ?_Gndec@?$basic_streambuf@DU?$char_traits@D@std@@@std@@IAEPADXZ 00423f0a f   msvcprt:MSVCP140.dll
 0001:00022f10       ?_Gninc@?$basic_streambuf@DU?$char_traits@D@std@@@std@@IAEPADXZ 00423f10 f   msvcprt:MSVCP140.dll
 0001:00022f16       ?_Pninc@?$basic_streambuf@DU?$char_traits@D@std@@@std@@IAEPADXZ 00423f16 f   msvcprt:MSVCP140.dll
 0001:00022f1c       ?_Init@?$basic_streambuf@DU?$char_traits@D@std@@@std@@IAEXXZ 00423f1c f   msvcprt:MSVCP140.dll
 0001:00022f22       ?_Init@?$basic_streambuf@DU?$char_traits@D@std@@@std@@IAEXPAPAD0PAH001@Z 00423f22 f   msvcprt:MSVCP140.dll
 0001:00022f28       ??1?$basic_ios@DU?$char_traits@D@std@@@std@@UAE@XZ 00423f28 f   msvcprt:MSVCP140.dll
 0001:00022f2e       ?setstate@?$basic_ios@DU?$char_traits@D@std@@@std@@QAEXH_N@Z 00423f2e f   msvcprt:MSVCP140.dll
 0001:00022f34       ??0?$basic_ios@DU?$char_traits@D@std@@@std@@IAE@XZ 00423f34 f   msvcprt:MSVCP140.dll
 0001:00022f3a       ??0?$basic_istream@DU?$char_traits@D@std@@@std@@QAE@PAV?$basic_streambuf@DU?$char_traits@D@std@@@1@_N@Z 00423f3a f   msvcprt:MSVCP140.dll
 0001:00022f40       ??1?$basic_istream@DU?$char_traits@D@std@@@std@@UAE@XZ 00423f40 f   msvcprt:MSVCP140.dll
 0001:00022f46       ??5?$basic_istream@DU?$char_traits@D@std@@@std@@QAEAAV01@AAH@Z 00423f46 f   msvcprt:MSVCP140.dll
 0001:00022f4c       ?_Fiopen@std@@YAPAU_iobuf@@PBDHH@Z 00423f4c f   msvcprt:MSVCP140.dll
 0001:00022f52       ?showmanyc@?$basic_streambuf@DU?$char_traits@D@std@@@std@@MAE_JXZ 00423f52 f   msvcprt:MSVCP140.dll
 0001:00022f58       ?xsgetn@?$basic_streambuf@DU?$char_traits@D@std@@@std@@MAE_JPAD_J@Z 00423f58 f   msvcprt:MSVCP140.dll
 0001:00022f5e       ?xsputn@?$basic_streambuf@DU?$char_traits@D@std@@@std@@MAE_JPBD_J@Z 00423f5e f   msvcprt:MSVCP140.dll
 0001:00022f64       ?widen@?$basic_ios@DU?$char_traits@D@std@@@std@@QBEDD@Z 00423f64 f   msvcprt:MSVCP140.dll
 0001:00022f6a       ??6?$basic_ostream@DU?$char_traits@D@std@@@std@@QAEAAV01@P6AAAV01@AAV01@@Z@Z 00423f6a f   msvcprt:MSVCP140.dll
 0001:00022f70       ??6?$basic_ostream@DU?$char_traits@D@std@@@std@@QAEAAV01@H@Z 00423f70 f   msvcprt:MSVCP140.dll
 0001:00022f76       ?put@?$basic_ostream@DU?$char_traits@D@std@@@std@@QAEAAV12@D@Z 00423f76 f   msvcprt:MSVCP140.dll
 0001:00022f7c       ?flush@?$basic_ostream@DU?$char_traits@D@std@@@std@@QAEAAV12@XZ 00423f7c f   msvcprt:MSVCP140.dll
 0001:00022f82       ?uncaught_exceptions@std@@YAHXZ 00423f82 f   msvcprt:MSVCP140.dll
 0001:00022f88       ?is@?$ctype@D@std@@QBE_NFD@Z 00423f88 f   msvcprt:MSVCP140.dll
 0001:00022f8e       ?_Getcat@?$ctype@D@std@@SAIPAPBVfacet@locale@2@PBV42@@Z 00423f8e f   msvcprt:MSVCP140.dll
 0001:00022f94       ??7ios_base@std@@QBE_NXZ   00423f94 f   msvcprt:MSVCP140.dll
 0001:00022f9a       ?good@ios_base@std@@QBE_NXZ 00423f9a f   msvcprt:MSVCP140.dll
 0001:00022fa0       ?flags@ios_base@std@@QBEHXZ 00423fa0 f   msvcprt:MSVCP140.dll
 0001:00022fa6       ?width@ios_base@std@@QBE_JXZ 00423fa6 f   msvcprt:MSVCP140.dll
 0001:00022fac       ?width@ios_base@std@@QAE_J_J@Z 00423fac f   msvcprt:MSVCP140.dll
 0001:00022fb2       ?getloc@ios_base@std@@QBE?AVlocale@2@XZ 00423fb2 f   msvcprt:MSVCP140.dll
 0001:00022fb8       ?sgetc@?$basic_streambuf@DU?$char_traits@D@std@@@std@@QAEHXZ 00423fb8 f   msvcprt:MSVCP140.dll
 0001:00022fbe       ?snextc@?$basic_streambuf@DU?$char_traits@D@std@@@std@@QAEHXZ 00423fbe f   msvcprt:MSVCP140.dll
 0001:00022fc4       ?sputc@?$basic_streambuf@DU?$char_traits@D@std@@@std@@QAEHD@Z 00423fc4 f   msvcprt:MSVCP140.dll
 0001:00022fca       ?sputn@?$basic_streambuf@DU?$char_traits@D@std@@@std@@QAE_JPBD_J@Z 00423fca f   msvcprt:MSVCP140.dll
 0001:00022fd0       ?tie@?$basic_ios@DU?$char_traits@D@std@@@std@@QBEPAV?$basic_ostream@DU?$char_traits@D@std@@@2@XZ 00423fd0 f   msvcprt:MSVCP140.dll
 0001:00022fd6       ?rdbuf@?$basic_ios@DU?$char_traits@D@std@@@std@@QBEPAV?$basic_streambuf@DU?$char_traits@D@std@@@2@XZ 00423fd6 f   msvcprt:MSVCP140.dll
 0001:00022fdc       ?fill@?$basic_ios@DU?$char_traits@D@std@@@std@@QBEDXZ 00423fdc f   msvcprt:MSVCP140.dll
 0001:00022fe2       ??0?$basic_ostream@DU?$char_traits@D@std@@@std@@QAE@PAV?$basic_streambuf@DU?$char_traits@D@std@@@1@_N@Z 00423fe2 f   msvcprt:MSVCP140.dll
 0001:00022fe8       ??1?$basic_ostream@DU?$char_traits@D@std@@@std@@UAE@XZ 00423fe8 f   msvcprt:MSVCP140.dll
 0001:00022fee       ?_Osfx@?$basic_ostream@DU?$char_traits@D@std@@@std@@QAEXXZ 00423fee f   msvcprt:MSVCP140.dll
 0001:00022ff4       ??6?$basic_ostream@DU?$char_traits@D@std@@@std@@QAEAAV01@_N@Z 00423ff4 f   msvcprt:MSVCP140.dll
 0001:00022ffa       ?_Ipfx@?$basic_istream@DU?$char_traits@D@std@@@std@@QAE_N_N@Z 00423ffa f   msvcprt:MSVCP140.dll
 0001:00023000       ??5?$basic_istream@DU?$char_traits@D@std@@@std@@QAEAAV01@AA_N@Z 00424000 f   msvcprt:MSVCP140.dll
 0001:000232d3       ?configure_argv@__scrt_narrow_argv_policy@@SAHXZ 004242d3 f i MSVCRT:exe_main.obj
 0001:000232e3       ?initialize_environment@__scrt_narrow_environment_policy@@SAHXZ 004242e3 f i MSVCRT:exe_main.obj
 0001:00023315       ?set_app_type@__scrt_main_policy@@SAXXZ 00424315 f i MSVCRT:exe_main.obj
 0001:00023320       ?set_commode@__scrt_file_policy@@SAXXZ 00424320 f i MSVCRT:exe_main.obj
 0001:00023335       ?set_fmode@__scrt_file_policy@@SAXXZ 00424335 f i MSVCRT:exe_main.obj
 0001:00023345       _mainCRTStartup            00424345 f   MSVCRT:exe_main.obj
 0001:00023351       ??3@YAXPAXI@Z              00424351 f   MSVCRT:delete_scalar_size.obj
 0001:00023362       @__security_check_cookie@4 00424362 f   MSVCRT:_secchk_.obj
 0001:00023377       ??1type_info@@UAE@XZ       00424377 f   MSVCRT:std_type_info_static.obj
 0001:0002337e       ??_Etype_info@@UAEPAXI@Z   0042437e f i MSVCRT:std_type_info_static.obj
 0001:0002337e       ??_Gtype_info@@UAEPAXI@Z   0042437e f i MSVCRT:std_type_info_static.obj
 0001:000233a9       ??2@YAPAXI@Z               004243a9 f   MSVCRT:new_scalar.obj
 0001:000233e5       ??_V@YAXPAX@Z              004243e5 f   MSVCRT:delete_array.obj
 0001:000233ea       ??_U@YAPAXI@Z              004243ea f   MSVCRT:new_array.obj
 0001:000233f5       ??$__crt_fast_decode_pointer@PAP6AXXZ@@YAPAP6AXXZQAP6AXXZ@Z 004243f5 f i MSVCRT:utility.obj
 0001:0002340e       ??$__crt_fast_encode_pointer@PAP6AXXZ@@YAPAP6AXXZQAP6AXXZ@Z 0042440e f i MSVCRT:utility.obj
 0001:00023432       ?__crt_rotate_pointer_value@@YAIIH@Z 00424432 f i MSVCRT:utility.obj
 0001:000234d6       _NtCurrentTeb              004244d6 f i MSVCRT:utility.obj
 0001:000234dd       ___scrt_acquire_startup_lock 004244dd f   MSVCRT:utility.obj
 0001:0002351f       ___scrt_dllmain_after_initialize_c 0042451f f   MSVCRT:utility.obj
 0001:00023554       ___scrt_dllmain_before_initialize_c 00424554 f   MSVCRT:utility.obj
 0001:00023565       ___scrt_dllmain_crt_thread_attach 00424565 f   MSVCRT:utility.obj
 0001:0002358b       ___scrt_dllmain_crt_thread_detach 0042458b f   MSVCRT:utility.obj
 0001:0002359b       ___scrt_dllmain_exception_filter 0042459b f   MSVCRT:utility.obj
 0001:000235da       ___scrt_dllmain_uninitialize_c 004245da f   MSVCRT:utility.obj
 0001:00023605       ___scrt_dllmain_uninitialize_critical 00424605 f   MSVCRT:utility.obj
 0001:00023615       ___scrt_initialize_crt     00424615 f   MSVCRT:utility.obj
 0001:0002365c       ___scrt_initialize_onexit_tables 0042465c f   MSVCRT:utility.obj
 0001:00023730       ___scrt_is_nonwritable_in_current_image 00424730 f   MSVCRT:utility.obj
 0001:000237dc       ___scrt_release_startup_lock 004247dc f   MSVCRT:utility.obj
 0001:00023800       ___scrt_uninitialize_crt   00424800 f   MSVCRT:utility.obj
 0001:00023832       __onexit                   00424832 f   MSVCRT:utility.obj
 0001:0002387b       _at_quick_exit             0042487b f   MSVCRT:utility.obj
 0001:000238b8       _atexit                    004248b8 f   MSVCRT:utility.obj
 0001:000238d2       ??_L@YGXPAXIHP6EX0@Z1@Z    004248d2 f   MSVCRT:ehvecctr.obj
 0001:000238d7       ??_L@YGXPAXIIP6EX0@Z1@Z    004248d7 f   MSVCRT:ehvecctr.obj
 0001:0002395a       ??_M@YGXPAXIHP6EX0@Z@Z     0042495a f   MSVCRT:ehvecdtr.obj
 0001:0002395f       ??_M@YGXPAXIIP6EX0@Z@Z     0042495f f   MSVCRT:ehvecdtr.obj
 0001:00023a16       ?__ArrayUnwind@@YGXPAXIIP6EX0@Z@Z 00424a16 f   MSVCRT:ehvecdtr.obj
 0001:00023a9f       @_guard_check_icall@4      00424a9f f i MSVCRT:checkcfg.obj
 0001:00023b07       ___security_init_cookie    00424b07 f   MSVCRT:gs_support.obj
 0001:00023b64       __matherr                  00424b64 f   MSVCRT:matherr.obj
 0001:00023b67       __get_startup_argv_mode    00424b67 f   MSVCRT:argv_mode.obj
 0001:00023b6b       __get_startup_commit_mode  00424b6b f   MSVCRT:commit_mode.obj
 0001:00023b6e       __get_startup_file_mode    00424b6e f   MSVCRT:file_mode.obj
 0001:00023b74       __get_startup_new_mode     00424b74 f   MSVCRT:new_mode.obj
 0001:00023b77       __get_startup_thread_locale_mode 00424b77 f   MSVCRT:thread_locale.obj
 0001:00023b7a       ?__scrt_initialize_type_info@@YAXXZ 00424b7a f   MSVCRT:tncleanup.obj
 0001:00023b89       ?__scrt_uninitialize_type_info@@YAXXZ 00424b89 f   MSVCRT:tncleanup.obj
 0001:00023b98       __should_initialize_environment 00424b98 f   MSVCRT:env_mode.obj
 0001:00023b9b       __initialize_default_precision 00424b9b f   MSVCRT:default_precision.obj
 0001:00023bc4       __initialize_invalid_parameter_handler 00424bc4 f   MSVCRT:invalid_parameter_handler.obj
 0001:00023bc5       __initialize_denormal_control 00424bc5 f   MSVCRT:denormal_control.obj
 0001:00023bc6       ___local_stdio_scanf_options 00424bc6 f i MSVCRT:default_local_stdio_options.obj
 0001:00023bcc       ___scrt_initialize_default_local_stdio_options 00424bcc f   MSVCRT:default_local_stdio_options.obj
 0001:00023bf0       ___scrt_is_user_matherr_present 00424bf0 f   MSVCRT:matherr_detection.obj
 0001:00023bff       ___scrt_get_dyn_tls_init_callback 00424bff f   MSVCRT:dyn_tls_init.obj
 0001:00023c05       ___scrt_get_dyn_tls_dtor_callback 00424c05 f   MSVCRT:dyn_tls_dtor.obj
 0001:00023c0b       ___scrt_fastfail           00424c0b f   MSVCRT:utility_desktop.obj
 0001:00023d6e       ___scrt_get_show_window_mode 00424d6e f   MSVCRT:utility_desktop.obj
 0001:00023dad       ___scrt_initialize_winrt   00424dad f   MSVCRT:utility_desktop.obj
 0001:00023db0       ___scrt_is_managed_app     00424db0 f   MSVCRT:utility_desktop.obj
 0001:00023e05       ___scrt_set_unhandled_exception_filter 00424e05 f   MSVCRT:utility_desktop.obj
 0001:00023e14       ___scrt_unhandled_exception_filter@4 00424e14 f   MSVCRT:utility_desktop.obj
 0001:00023e65       __crt_debugger_hook        00424e65 f   MSVCRT:utility_desktop.obj
 0001:00023e6f       __RTC_Initialize           00424e6f f   MSVCRT:_initsect_.obj
 0001:00023ea4       __RTC_Terminate            00424ea4 f   MSVCRT:_initsect_.obj
 0001:00023ee0       __SEH_prolog4              00424ee0 f   MSVCRT:_sehprolg4_.obj
 0001:00023f26       __SEH_epilog4              00424f26 f   MSVCRT:_sehprolg4_.obj
 0001:00023f51       __except_handler4          00424f51 f   MSVCRT:_chandler4gs_.obj
 0001:00023f7c       ??3@YAXPAX@Z               00424f7c f   MSVCRT:delete_scalar.obj
 0001:00023f81       ___raise_securityfailure   00424f81 f   MSVCRT:gs_report.obj
 0001:00023fb3       ___report_gsfailure        00424fb3 f   MSVCRT:gs_report.obj
 0001:000240ec       ___report_rangecheckfailure 004250ec f   MSVCRT:gs_report.obj
 0001:000240fb       ___report_securityfailure  004250fb f   MSVCRT:gs_report.obj
 0001:000241ff       ___report_securityfailureEx 004251ff f   MSVCRT:gs_report.obj
 0001:0002435a       ??0bad_alloc@std@@AAE@QBD@Z 0042535a f i MSVCRT:throw_bad_alloc.obj
 0001:0002437e       ??0bad_alloc@std@@QAE@ABV01@@Z 0042537e f i MSVCRT:throw_bad_alloc.obj
 0001:0002439f       ??0bad_alloc@std@@QAE@XZ   0042539f f i MSVCRT:throw_bad_alloc.obj
 0001:000243bd       ??0bad_array_new_length@std@@QAE@ABV01@@Z 004253bd f i MSVCRT:throw_bad_alloc.obj
 0001:000243de       ??0bad_array_new_length@std@@QAE@XZ 004253de f i MSVCRT:throw_bad_alloc.obj
 0001:000243fc       ??1bad_alloc@std@@UAE@XZ   004253fc f i MSVCRT:throw_bad_alloc.obj
 0001:00024411       ??1bad_array_new_length@std@@UAE@XZ 00425411 f i MSVCRT:throw_bad_alloc.obj
 0001:00024426       ??_Ebad_alloc@std@@UAEPAXI@Z 00425426 f i MSVCRT:throw_bad_alloc.obj
 0001:00024426       ??_Gbad_alloc@std@@UAEPAXI@Z 00425426 f i MSVCRT:throw_bad_alloc.obj
 0001:0002445e       ??_Ebad_array_new_length@std@@UAEPAXI@Z 0042545e f i MSVCRT:throw_bad_alloc.obj
 0001:0002445e       ??_Gbad_array_new_length@std@@UAEPAXI@Z 0042545e f i MSVCRT:throw_bad_alloc.obj
 0001:00024496       ?__scrt_throw_std_bad_alloc@@YAXXZ 00425496 f   MSVCRT:throw_bad_alloc.obj
 0001:000244ba       ?__scrt_throw_std_bad_array_new_length@@YAXXZ 004254ba f   MSVCRT:throw_bad_alloc.obj
 0001:000244de       ___isa_available_init      004254de f   MSVCRT:_cpu_disp_.obj
 0001:000246dd       ___scrt_is_ucrt_dll_in_use 004256dd f   MSVCRT:ucrt_detection.obj
 0001:000246ec       @_guard_check_icall_nop@4  004256ec f i MSVCRT:guard_support.obj
 0001:000246ed       _ReadNoFence               004256ed f i MSVCRT:guard_support.obj
 0001:000246f9       _ReadPointerNoFence        004256f9 f i MSVCRT:guard_support.obj
 0001:00024705       __guard_icall_checks_enforced 00425705 f i MSVCRT:guard_support.obj
 0001:0002471b       ___CxxFrameHandler3        0042571b f   vcruntime:VCRUNTIME140.dll
 0001:00024721       _memcpy                    00425721 f   vcruntime:VCRUNTIME140.dll
 0001:00024727       _memmove                   00425727 f   vcruntime:VCRUNTIME140.dll
 0001:0002472d       _memset                    0042572d f   vcruntime:VCRUNTIME140.dll
 0001:00024733       ___std_exception_copy      00425733 f   vcruntime:VCRUNTIME140.dll
 0001:00024739       ___std_exception_destroy   00425739 f   vcruntime:VCRUNTIME140.dll
 0001:0002473f       __CxxThrowException@8      0042573f f   vcruntime:VCRUNTIME140.dll
 0001:00024745       _memcmp                    00425745 f   vcruntime:VCRUNTIME140.dll
 0001:0002474b       ___std_type_info_destroy_list 0042574b f   vcruntime:VCRUNTIME140.dll
 0001:00024751       __except_handler4_common   00425751 f   vcruntime:VCRUNTIME140.dll
 0001:00024757       ___acrt_iob_func           00425757 f   ucrt:api-ms-win-crt-stdio-l1-1-0.dll
 0001:0002475d       ___stdio_common_vfprintf   0042575d f   ucrt:api-ms-win-crt-stdio-l1-1-0.dll
 0001:00024763       __invalid_parameter_noinfo 00425763 f   ucrt:api-ms-win-crt-runtime-l1-1-0.dll
 0001:00024769       __invalid_parameter_noinfo_noreturn 00425769 f   ucrt:api-ms-win-crt-runtime-l1-1-0.dll
 0001:0002476f       __errno                    0042576f f   ucrt:api-ms-win-crt-runtime-l1-1-0.dll
 0001:00024775       _abs                       00425775 f   ucrt:api-ms-win-crt-utility-l1-1-0.dll
 0001:0002477b       __get_stream_buffer_pointers 0042577b f   ucrt:api-ms-win-crt-stdio-l1-1-0.dll
 0001:00024781       _fclose                    00425781 f   ucrt:api-ms-win-crt-stdio-l1-1-0.dll
 0001:00024787       _fflush                    00425787 f   ucrt:api-ms-win-crt-stdio-l1-1-0.dll
 0001:0002478d       _fgetc                     0042578d f   ucrt:api-ms-win-crt-stdio-l1-1-0.dll
 0001:00024793       _fgetpos                   00425793 f   ucrt:api-ms-win-crt-stdio-l1-1-0.dll
 0001:00024799       _fputc                     00425799 f   ucrt:api-ms-win-crt-stdio-l1-1-0.dll
 0001:0002479f       _fsetpos                   0042579f f   ucrt:api-ms-win-crt-stdio-l1-1-0.dll
 0001:000247a5       __fseeki64                 004257a5 f   ucrt:api-ms-win-crt-stdio-l1-1-0.dll
 0001:000247ab       _fwrite                    004257ab f   ucrt:api-ms-win-crt-stdio-l1-1-0.dll
 0001:000247b1       _setvbuf                   004257b1 f   ucrt:api-ms-win-crt-stdio-l1-1-0.dll
 0001:000247b7       _ungetc                    004257b7 f   ucrt:api-ms-win-crt-stdio-l1-1-0.dll
 0001:000247bd       __lock_file                004257bd f   ucrt:api-ms-win-crt-filesystem-l1-1-0.dll
 0001:000247c3       __unlock_file              004257c3 f   ucrt:api-ms-win-crt-filesystem-l1-1-0.dll
 0001:000247c9       _strlen                    004257c9 f   ucrt:api-ms-win-crt-string-l1-1-0.dll
 0001:000247cf       ___stdio_common_vsprintf   004257cf f   ucrt:api-ms-win-crt-stdio-l1-1-0.dll
 0001:000247d5       _srand                     004257d5 f   ucrt:api-ms-win-crt-utility-l1-1-0.dll
 0001:000247db       __time64                   004257db f   ucrt:api-ms-win-crt-time-l1-1-0.dll
 0001:000247e1       _atan                      004257e1 f   ucrt:api-ms-win-crt-math-l1-1-0.dll
 0001:000247e7       _cos                       004257e7 f   ucrt:api-ms-win-crt-math-l1-1-0.dll
 0001:000247ed       _sin                       004257ed f   ucrt:api-ms-win-crt-math-l1-1-0.dll
 0001:000247f3       _strcmp                    004257f3 f   ucrt:api-ms-win-crt-string-l1-1-0.dll
 0001:000247f9       _strcpy                    004257f9 f   ucrt:api-ms-win-crt-string-l1-1-0.dll
 0001:000247ff       _exit                      004257ff f   ucrt:api-ms-win-crt-runtime-l1-1-0.dll
 0001:00024805       _rand                      00425805 f   ucrt:api-ms-win-crt-utility-l1-1-0.dll
 0001:0002480b       __wassert                  0042580b f   ucrt:api-ms-win-crt-runtime-l1-1-0.dll
 0001:00024811       __seh_filter_exe           00425811 f   ucrt:api-ms-win-crt-runtime-l1-1-0.dll
 0001:00024817       __set_app_type             00425817 f   ucrt:api-ms-win-crt-runtime-l1-1-0.dll
 0001:0002481d       ___setusermatherr          0042581d f   ucrt:api-ms-win-crt-math-l1-1-0.dll
 0001:00024823       __configure_narrow_argv    00425823 f   ucrt:api-ms-win-crt-runtime-l1-1-0.dll
 0001:00024829       __initialize_narrow_environment 00425829 f   ucrt:api-ms-win-crt-runtime-l1-1-0.dll
 0001:0002482f       __get_initial_narrow_environment 0042582f f   ucrt:api-ms-win-crt-runtime-l1-1-0.dll
 0001:00024835       __initterm                 00425835 f   ucrt:api-ms-win-crt-runtime-l1-1-0.dll
 0001:0002483b       __initterm_e               0042583b f   ucrt:api-ms-win-crt-runtime-l1-1-0.dll
 0001:00024841       __exit                     00425841 f   ucrt:api-ms-win-crt-runtime-l1-1-0.dll
 0001:00024847       __set_fmode                00425847 f   ucrt:api-ms-win-crt-stdio-l1-1-0.dll
 0001:0002484d       ___p___argc                0042584d f   ucrt:api-ms-win-crt-runtime-l1-1-0.dll
 0001:00024853       ___p___argv                00425853 f   ucrt:api-ms-win-crt-runtime-l1-1-0.dll
 0001:00024859       __cexit                    00425859 f   ucrt:api-ms-win-crt-runtime-l1-1-0.dll
 0001:0002485f       __c_exit                   0042585f f   ucrt:api-ms-win-crt-runtime-l1-1-0.dll
 0001:00024865       __register_thread_local_exe_atexit_callback 00425865 f   ucrt:api-ms-win-crt-runtime-l1-1-0.dll
 0001:0002486b       __configthreadlocale       0042586b f   ucrt:api-ms-win-crt-locale-l1-1-0.dll
 0001:00024871       __set_new_mode             00425871 f   ucrt:api-ms-win-crt-heap-l1-1-0.dll
 0001:00024877       ___p__commode              00425877 f   ucrt:api-ms-win-crt-stdio-l1-1-0.dll
 0001:0002487d       __callnewh                 0042587d f   ucrt:api-ms-win-crt-heap-l1-1-0.dll
 0001:00024883       _malloc                    00425883 f   ucrt:api-ms-win-crt-heap-l1-1-0.dll
 0001:00024889       __seh_filter_dll           00425889 f   ucrt:api-ms-win-crt-runtime-l1-1-0.dll
 0001:0002488f       __initialize_onexit_table  0042588f f   ucrt:api-ms-win-crt-runtime-l1-1-0.dll
 0001:00024895       __register_onexit_function 00425895 f   ucrt:api-ms-win-crt-runtime-l1-1-0.dll
 0001:0002489b       __execute_onexit_table     0042589b f   ucrt:api-ms-win-crt-runtime-l1-1-0.dll
 0001:000248a1       __crt_atexit               004258a1 f   ucrt:api-ms-win-crt-runtime-l1-1-0.dll
 0001:000248a7       __crt_at_quick_exit        004258a7 f   ucrt:api-ms-win-crt-runtime-l1-1-0.dll
 0001:000248ad       _terminate                 004258ad f   ucrt:api-ms-win-crt-runtime-l1-1-0.dll
 0001:000248b3       __controlfp_s              004258b3 f   ucrt:api-ms-win-crt-runtime-l1-1-0.dll
 0001:000248b9       _free                      004258b9 f   ucrt:api-ms-win-crt-heap-l1-1-0.dll
 0001:00024a30       _WinMain@16                00425a30 f   SDL2main:SDL_windows_main.obj
 0001:00024bb0       _main                      00425bb0 f   SDL2main:SDL_windows_main.obj
 0001:00024bd0       _wmain                     00425bd0 f   SDL2main:SDL_windows_main.obj
 0001:00024c75       _QueryPerformanceCounter@4 00425c75 f   kernel32:KERNEL32.dll
 0001:00024c7b       _GetCurrentProcessId@0     00425c7b f   kernel32:KERNEL32.dll
 0001:00024c81       _GetCurrentThreadId@0      00425c81 f   kernel32:KERNEL32.dll
 0001:00024c87       _GetSystemTimeAsFileTime@4 00425c87 f   kernel32:KERNEL32.dll
 0001:00024c8d       _InitializeSListHead@4     00425c8d f   kernel32:KERNEL32.dll
 0001:00024c93       _IsDebuggerPresent@0       00425c93 f   kernel32:KERNEL32.dll
 0001:00024c99       _UnhandledExceptionFilter@4 00425c99 f   kernel32:KERNEL32.dll
 0001:00024c9f       _SetUnhandledExceptionFilter@4 00425c9f f   kernel32:KERNEL32.dll
 0001:00024ca5       _GetStartupInfoW@4         00425ca5 f   kernel32:KERNEL32.dll
 0001:00024cab       _IsProcessorFeaturePresent@4 00425cab f   kernel32:KERNEL32.dll
 0001:00024cb1       _GetModuleHandleW@4        00425cb1 f   kernel32:KERNEL32.dll
 0001:00024cb7       _GetCurrentProcess@0       00425cb7 f   kernel32:KERNEL32.dll
 0001:00024cbd       _TerminateProcess@8        00425cbd f   kernel32:KERNEL32.dll
 0001:00024cc3       _GetCommandLineW@0         00425cc3 f   kernel32:KERNEL32.dll
 0001:00024cc9       _SDL_malloc                00425cc9 f   SDL2:SDL2.dll
 0001:00024ccf       _SDL_free                  00425ccf f   SDL2:SDL2.dll
 0001:00024cd5       _SDL_isspace               00425cd5 f   SDL2:SDL2.dll
 0001:00024cdb       _SDL_wcslen                00425cdb f   SDL2:SDL2.dll
 0001:00024ce1       _SDL_iconv_string          00425ce1 f   SDL2:SDL2.dll
 0001:00024ce7       _SDL_SetMainReady          00425ce7 f   SDL2:SDL2.dll
 0001:00024ced       _SDL_ShowSimpleMessageBox  00425ced f   SDL2:SDL2.dll
 0001:00024cf3       ___scrt_stub_for_acrt_initialize 00425cf3 f   MSVCRT:ucrt_stubs.obj
 0001:00024cf3       ___vcrt_initialize         00425cf3 f   MSVCRT:ucrt_stubs.obj
 0001:00024cf3       ___acrt_initialize         00425cf3 f   MSVCRT:ucrt_stubs.obj
 0001:00024cf6       ___vcrt_thread_attach      00425cf6 f   MSVCRT:ucrt_stubs.obj
 0001:00024cf6       ___scrt_stub_for_acrt_thread_attach 00425cf6 f   MSVCRT:ucrt_stubs.obj
 0001:00024cf6       ___acrt_thread_attach      00425cf6 f   MSVCRT:ucrt_stubs.obj
 0001:00024cf9       ___scrt_stub_for_acrt_thread_detach 00425cf9 f   MSVCRT:ucrt_stubs.obj
 0001:00024cf9       ___acrt_thread_detach      00425cf9 f   MSVCRT:ucrt_stubs.obj
 0001:00024cf9       ___vcrt_thread_detach      00425cf9 f   MSVCRT:ucrt_stubs.obj
 0001:00024cfc       ___acrt_uninitialize       00425cfc f   MSVCRT:ucrt_stubs.obj
 0001:00024cfc       ___scrt_stub_for_acrt_uninitialize 00425cfc f   MSVCRT:ucrt_stubs.obj
 0001:00024cfc       ___vcrt_uninitialize       00425cfc f   MSVCRT:ucrt_stubs.obj
 0001:00024cff       ___scrt_stub_for_acrt_uninitialize_critical 00425cff f   MSVCRT:ucrt_stubs.obj
 0001:00024cff       ___vcrt_uninitialize_critical 00425cff f   MSVCRT:ucrt_stubs.obj
 0001:00024cff       ___acrt_uninitialize_critical 00425cff f   MSVCRT:ucrt_stubs.obj
 0001:00024d02       ___scrt_stub_for_is_c_termination_complete 00425d02 f   MSVCRT:ucrt_stubs.obj
 0001:00024d02       __is_c_termination_complete 00425d02 f   MSVCRT:ucrt_stubs.obj
 0002:00000000       ___xc_a                    0042b000     MSVCRT:initializers.obj
 0002:0000030c       ___xc_z                    0042b30c     MSVCRT:initializers.obj
 0002:00000410       ___xi_a                    0042b410     MSVCRT:initializers.obj
 0002:0000071c       ___xi_z                    0042b71c     MSVCRT:initializers.obj
 0002:00000820       ___xp_a                    0042b820     MSVCRT:initializers.obj
 0002:00000924       ___xp_z                    0042b924     MSVCRT:initializers.obj
 0002:00000a28       ___xt_a                    0042ba28     MSVCRT:initializers.obj
 0002:00000b2c       ___xt_z                    0042bb2c     MSVCRT:initializers.obj
 0002:00000c3c       ??_7ArrowObject@@6B@       0042bc3c     ArrowObject.obj
 0002:00000d28       ??_7exception@std@@6B@     0042bd28     EnemyObject.obj
 0002:00000d34       ??_C@_0BC@EOODALEL@Unknown?5exception?$AA@ 0042bd34     EnemyObject.obj
 0002:00000d50       ??_7bad_cast@std@@6B@      0042bd50     EnemyObject.obj
 0002:00000d5c       ??_C@_08EPJLHIJG@bad?5cast?$AA@ 0042bd5c     EnemyObject.obj
 0002:00000d6c       ??_7EnemyObject@@6B@       0042bd6c     EnemyObject.obj
 0002:00000da8       ??_7?$basic_filebuf@DU?$char_traits@D@std@@@std@@6B@ 0042bda8     EnemyObject.obj
 0002:00000df4       ??_7?$basic_ifstream@DU?$char_traits@D@std@@@std@@6B@ 0042bdf4     EnemyObject.obj
 0002:00000dfc       ??_8?$basic_ifstream@DU?$char_traits@D@std@@@std@@7B@ 0042bdfc     EnemyObject.obj
 0002:00000e08       ??_C@_0BI@CFPLBAOH@invalid?5string?5position?$AA@ 0042be08     EnemyObject.obj
 0002:00000e24       ??_C@_0BA@JFNIOLAK@string?5too?5long?$AA@ 0042be24     EnemyObject.obj
 0002:000012f0       ??_7Equipment@@6B@         0042c2f0     Equipment.obj
 0002:000014f0       ??_7HeroObject@@6B@        0042c4f0     HeroObject.obj
 0002:00001550       ?MY_PI@BaseEngine@@2NB     0042c550     BaseEngine.obj
 0002:00001624       ??_7BaseEngine@@6B@        0042c624     BaseEngine.obj
 0002:00001690       __real@3fe0000000000000    0042c690     BaseEngine.obj
 0002:000016a0       __real@3fe0c152382d7365    0042c6a0     BaseEngine.obj
 0002:000016b0       __real@3ff0000000000000    0042c6b0     BaseEngine.obj
 0002:000016c0       __real@3ff8000000000000    0042c6c0     BaseEngine.obj
 0002:000016d0       __real@3ff921fb54442d18    0042c6d0     BaseEngine.obj
 0002:000016e0       __real@4000000000000000    0042c6e0     BaseEngine.obj
 0002:000016f0       __real@4008000000000000    0042c6f0     BaseEngine.obj
 0002:00001700       __real@400921fb54442d18    0042c700     BaseEngine.obj
 0002:00001710       __real@400f6a7a2955385e    0042c710     BaseEngine.obj
 0002:00001720       __real@4010000000000000    0042c720     BaseEngine.obj
 0002:00001730       __real@401921fb54442d18    0042c730     BaseEngine.obj
 0002:00001740       ??_7DisplayableObject@@6B@ 0042c740     DisplayableObject.obj
 0002:00001794       ??_C@_0BI@GMOFELCF@Free?5font?3?5?$CFd?5point?5?$CFs?6?$AA@ 0042c794     FontManager.obj
 0002:000017b0       __real@3f50624dd2f1a9fc    0042c7b0     JPGImage.obj
 0002:000017c0       __real@4059000000000000    0042c7c0     JPGImage.obj
 0002:000017d0       __real@406fe00000000000    0042c7d0     JPGImage.obj
 0002:000017e0       __xmm@41f00000000000000000000000000000 0042c7e0     JPGImage.obj
 0002:00001efc       ??_7PsyagceEngine@@6B@     0042cefc     PsyagceEngine.obj
 0002:00001f68       ??_7?$basic_ofstream@DU?$char_traits@D@std@@@std@@6B@ 0042cf68     PsyagceEngine.obj
 0002:00001f70       ??_8?$basic_ofstream@DU?$char_traits@D@std@@@std@@7B@ 0042cf70     PsyagceEngine.obj
 0002:00001f7c       ??_C@_0BD@OLBABOEK@vector?$DMT?$DO?5too?5long?$AA@ 0042cf7c     PsyagceEngine.obj
 0002:00002028       ??_7TileManager@@6B@       0042d028     PsyagceTileManager.obj
 0002:0000203c       ??_7PsyagceTileManager@@6B@ 0042d03c     PsyagceTileManager.obj
 0002:000020b0       ??_C@_1HG@LHGCKPHJ@?$AAc?$AA?3?$AA?2?$AAu?$AAs?$AAe?$AAr?$AAs?$AA?2?$AAa?$AAn?$AAd?$AAr?$AAe?$AAa?$AA?2?$AAd?$AAe?$AAs?$AAk?$AAt?$AAo?$AAp?$AA?2?$AAc?$AAp?$AAp?$AAc?$AAo?$AAu?$AAr?$AAs@ 0042d0b0     SimpleDemo.obj
 0002:00002140       ??_C@_1BA@GEGIDABA@?$AAi?$AAX?$AA?5?$AA?$DO?$AA?$DN?$AA?5?$AA0?$AA?$AA@ 0042d140     SimpleDemo.obj
 0002:00002154       ??_C@_1CI@LOLMHJMA@?$AAi?$AAX?$AA?5?$AA?$DM?$AA?5?$AAm?$AA_?$AAi?$AAW?$AAi?$AAn?$AAd?$AAo?$AAw?$AAW?$AAi?$AAd?$AAt?$AAh?$AA?$AA@ 0042d154     SimpleDemo.obj
 0002:00002184       ??_C@_1BA@PJGHNBGG@?$AAi?$AAY?$AA?5?$AA?$DO?$AA?$DN?$AA?5?$AA0?$AA?$AA@ 0042d184     SimpleDemo.obj
 0002:00002198       ??_C@_1CK@JLNMHNIF@?$AAi?$AAY?$AA?5?$AA?$DM?$AA?5?$AAm?$AA_?$AAi?$AAW?$AAi?$AAn?$AAd?$AAo?$AAw?$AAH?$AAe?$AAi?$AAg?$AAh?$AAt?$AA?$AA@ 0042d198     SimpleDemo.obj
 0002:000021d0       ??_C@_1EI@HDGFGJMN@?$AAi?$AAX?$AA?5?$AA?$DM?$AA?5?$AAG?$AAe?$AAt?$AAI?$AAn?$AAt?$AAs?$AAP?$AAe?$AAr?$AAW?$AAi?$AAn?$AAd?$AAo?$AAw?$AAR?$AAo?$AAw?$AA?$CI?$AA?5?$AAp?$AAT?$AAa?$AAr?$AAg?$AAe@ 0042d1d0     SimpleDemo.obj
 0002:0000222c       ??_7SimpleShape@@6B@       0042d22c     SimpleDemo.obj
 0002:00002244       ??_C@_0BB@HGEFLDGP@Position?5?$CFf?0?5?$CFf?6?$AA@ 0042d244     SimpleDemo.obj
 0002:00002258       __real@0000000000000000    0042d258     SimpleDemo.obj
 0002:00002268       __real@3f747ae147ae147b    0042d268     SimpleDemo.obj
 0002:00002278       __real@4004000000000000    0042d278     SimpleDemo.obj
 0002:00002290       __xmm@80000000000000008000000000000000 0042d290     SimpleDemo.obj
 0002:000022a8       ??_7SpriteObject@@6B@      0042d2a8     SpriteObject.obj
 0002:0000232c       ??_7StatsBar@@6B@          0042d32c     StatsBar.obj
 0002:00002348       ??_7BouncingBall@@6B@      0042d348     BouncingBall.obj
 0002:00002364       ??_7BouncingBall1@@6B@     0042d364     BouncingBall.obj
 0002:00002380       ??_7BouncingBall2@@6B@     0042d380     BouncingBall.obj
 0002:00002398       __real@3f847ae147ae147b    0042d398     BouncingBall.obj
 0002:000023d0       __real@3fe999999999999a    0042d3d0     BouncingBallMain.obj
 0002:000023e0       __real@3ff199999999999a    0042d3e0     BouncingBallMain.obj
 0002:000023f0       __real@3ff3333333333333    0042d3f0     BouncingBallMain.obj
 0002:00002400       __real@4049000000000000    0042d400     BouncingBallMain.obj
 0002:00002410       __real@4062c00000000000    0042d410     BouncingBallMain.obj
 0002:00002420       __real@4066800000000000    0042d420     BouncingBallMain.obj
 0002:00002430       __real@4069000000000000    0042d430     BouncingBallMain.obj
 0002:00002440       __real@406f400000000000    0042d440     BouncingBallMain.obj
 0002:00002450       __real@4071300000000000    0042d450     BouncingBallMain.obj
 0002:00002460       __real@4072c00000000000    0042d460     BouncingBallMain.obj
 0002:00002470       __real@4074500000000000    0042d470     BouncingBallMain.obj
 0002:00002480       __real@4075e00000000000    0042d480     BouncingBallMain.obj
 0002:00002490       __real@4079000000000000    0042d490     BouncingBallMain.obj
 0002:000024a0       __real@4079a00000000000    0042d4a0     BouncingBallMain.obj
 0002:000024b0       __real@407c200000000000    0042d4b0     BouncingBallMain.obj
 0002:000024c0       __real@407f400000000000    0042d4c0     BouncingBallMain.obj
 0002:000024d0       __real@4081300000000000    0042d4d0     BouncingBallMain.obj
 0002:000024e0       __real@4082c00000000000    0042d4e0     BouncingBallMain.obj
 0002:000024f0       __real@4084500000000000    0042d4f0     BouncingBallMain.obj
 0002:00002500       __real@4087700000000000    0042d500     BouncingBallMain.obj
 0002:00002510       ??_7Demo1Main@@6B@         0042d510     Demo1Main.obj
 0002:0000258c       ??_7Demo2Main@@6B@         0042d58c     Demo2Main.obj
 0002:000025f8       ??_7Demo2Object@@6B@       0042d5f8     Demo2Object.obj
 0002:00002614       ??_7Demo2TileManager@@6B@  0042d614     Demo2TileManager.obj
 0002:00002724       ??_7Demo3Main@@6B@         0042d724     Demo3Main.obj
 0002:00002790       ??_7Demo3Object@@6B@       0042d790     Demo3Object.obj
 0002:000027ac       ??_7Demo3ObjectFinished@@6B@ 0042d7ac     Demo3ObjectFinished.obj
 0002:000027c8       ??_7Demo3TileManager@@6B@  0042d7c8     Demo3TileManager.obj
 0002:00002914       ??_7Demo4Main@@6B@         0042d914     Demo4Main.obj
 0002:00002980       ??_7Demo4Object@@6B@       0042d980     Demo4Object.obj
 0002:0000299c       ??_7Demo4TileManager@@6B@  0042d99c     Demo4TileManager.obj
 0002:000029b0       ??_7type_info@@6B@         0042d9b0     MSVCRT:std_type_info_static.obj
 0002:000029c8       ??_7bad_alloc@std@@6B@     0042d9c8     MSVCRT:throw_bad_alloc.obj
 0002:000029d4       ??_C@_0P@GHFPNOJB@bad?5allocation?$AA@ 0042d9d4     MSVCRT:throw_bad_alloc.obj
 0002:000029ec       ??_7bad_array_new_length@std@@6B@ 0042d9ec     MSVCRT:throw_bad_alloc.obj
 0002:000029f8       ??_C@_0BF@KINCDENJ@bad?5array?5new?5length?$AA@ 0042d9f8     MSVCRT:throw_bad_alloc.obj
 0002:00002a14       ??_C@_0BJ@HFNMHALN@Out?5of?5memory?5?9?5aborting?$AA@ 0042da14     SDL2main:SDL_windows_main.obj
 0002:00002a34       ??_C@_0M@HFFOIJBL@Fatal?5Error?$AA@ 0042da34     SDL2main:SDL_windows_main.obj
 0002:00002a44       ??_C@_08NBDJLNFA@UTF?916LE?$AA@ 0042da44     SDL2main:SDL_windows_main.obj
 0002:00002a50       ??_C@_05EGJIMALK@UTF?98?$AA@ 0042da50     SDL2main:SDL_windows_main.obj
 0002:00002a98       __load_config_used         0042da98     MSVCRT:loadcfg.obj
 0002:00002cec       ??_R4ArrowObject@@6B@      0042dcec     ArrowObject.obj
 0002:00002d04       ??_R3ArrowObject@@8        0042dd04     ArrowObject.obj
 0002:00002d18       ??_R2ArrowObject@@8        0042dd18     ArrowObject.obj
 0002:00002d24       ??_R1A@?0A@EA@ArrowObject@@8 0042dd24     ArrowObject.obj
 0002:00002d48       ??_R1A@?0A@EA@DisplayableObject@@8 0042dd48     ArrowObject.obj
 0002:00002d6c       ??_R3DisplayableObject@@8  0042dd6c     ArrowObject.obj
 0002:00002d80       ??_R2DisplayableObject@@8  0042dd80     ArrowObject.obj
 0002:00002d88       ??_R4exception@std@@6B@    0042dd88     EnemyObject.obj
 0002:00002da0       ??_R3exception@std@@8      0042dda0     EnemyObject.obj
 0002:00002db4       ??_R2exception@std@@8      0042ddb4     EnemyObject.obj
 0002:00002dbc       ??_R1A@?0A@EA@exception@std@@8 0042ddbc     EnemyObject.obj
 0002:00002de0       ??_R4?$basic_filebuf@DU?$char_traits@D@std@@@std@@6B@ 0042dde0     EnemyObject.obj
 0002:00002df8       ??_R3?$basic_filebuf@DU?$char_traits@D@std@@@std@@8 0042ddf8     EnemyObject.obj
 0002:00002e0c       ??_R2?$basic_filebuf@DU?$char_traits@D@std@@@std@@8 0042de0c     EnemyObject.obj
 0002:00002e18       ??_R1A@?0A@EA@?$basic_filebuf@DU?$char_traits@D@std@@@std@@8 0042de18     EnemyObject.obj
 0002:00002e3c       ??_R1A@?0A@EA@?$basic_streambuf@DU?$char_traits@D@std@@@std@@8 0042de3c     EnemyObject.obj
 0002:00002e60       ??_R3?$basic_streambuf@DU?$char_traits@D@std@@@std@@8 0042de60     EnemyObject.obj
 0002:00002e74       ??_R2?$basic_streambuf@DU?$char_traits@D@std@@@std@@8 0042de74     EnemyObject.obj
 0002:00002e7c       ??_R4?$basic_ifstream@DU?$char_traits@D@std@@@std@@6B@ 0042de7c     EnemyObject.obj
 0002:00002e94       ??_R3?$basic_ifstream@DU?$char_traits@D@std@@@std@@8 0042de94     EnemyObject.obj
 0002:00002ea8       ??_R2?$basic_ifstream@DU?$char_traits@D@std@@@std@@8 0042dea8     EnemyObject.obj
 0002:00002ec4       ??_R1A@?0A@EA@?$basic_ifstream@DU?$char_traits@D@std@@@std@@8 0042dec4     EnemyObject.obj
 0002:00002ee8       ??_R1A@?0A@EA@?$basic_istream@DU?$char_traits@D@std@@@std@@8 0042dee8     EnemyObject.obj
 0002:00002f0c       ??_R3?$basic_istream@DU?$char_traits@D@std@@@std@@8 0042df0c     EnemyObject.obj
 0002:00002f20       ??_R2?$basic_istream@DU?$char_traits@D@std@@@std@@8 0042df20     EnemyObject.obj
 0002:00002f34       ??_R1A@A@3FA@?$basic_ios@DU?$char_traits@D@std@@@std@@8 0042df34     EnemyObject.obj
 0002:00002f58       ??_R3?$basic_ios@DU?$char_traits@D@std@@@std@@8 0042df58     EnemyObject.obj
 0002:00002f6c       ??_R2?$basic_ios@DU?$char_traits@D@std@@@std@@8 0042df6c     EnemyObject.obj
 0002:00002f7c       ??_R1A@?0A@EA@?$basic_ios@DU?$char_traits@D@std@@@std@@8 0042df7c     EnemyObject.obj
 0002:00002fa0       ??_R1A@?0A@EA@ios_base@std@@8 0042dfa0     EnemyObject.obj
 0002:00002fc4       ??_R3ios_base@std@@8       0042dfc4     EnemyObject.obj
 0002:00002fd8       ??_R2ios_base@std@@8       0042dfd8     EnemyObject.obj
 0002:00002fe4       ??_R17?0A@EA@?$_Iosb@H@std@@8 0042dfe4     EnemyObject.obj
 0002:00003008       ??_R3?$_Iosb@H@std@@8      0042e008     EnemyObject.obj
 0002:0000301c       ??_R2?$_Iosb@H@std@@8      0042e01c     EnemyObject.obj
 0002:00003024       ??_R1A@?0A@EA@?$_Iosb@H@std@@8 0042e024     EnemyObject.obj
 0002:00003048       ??_R1A@A@3EA@ios_base@std@@8 0042e048     EnemyObject.obj
 0002:0000306c       ??_R17A@3EA@?$_Iosb@H@std@@8 0042e06c     EnemyObject.obj
 0002:00003090       ??_R4bad_cast@std@@6B@     0042e090     EnemyObject.obj
 0002:000030a8       ??_R3bad_cast@std@@8       0042e0a8     EnemyObject.obj
 0002:000030bc       ??_R2bad_cast@std@@8       0042e0bc     EnemyObject.obj
 0002:000030c8       ??_R1A@?0A@EA@bad_cast@std@@8 0042e0c8     EnemyObject.obj
 0002:000030ec       ??_R4EnemyObject@@6B@      0042e0ec     EnemyObject.obj
 0002:00003104       ??_R3EnemyObject@@8        0042e104     EnemyObject.obj
 0002:00003118       ??_R2EnemyObject@@8        0042e118     EnemyObject.obj
 0002:00003128       ??_R1A@?0A@EA@EnemyObject@@8 0042e128     EnemyObject.obj
 0002:0000314c       ??_R1A@?0A@EA@SpriteObject@@8 0042e14c     EnemyObject.obj
 0002:00003170       ??_R3SpriteObject@@8       0042e170     EnemyObject.obj
 0002:00003184       ??_R2SpriteObject@@8       0042e184     EnemyObject.obj
 0002:00003190       ??_R4Equipment@@6B@        0042e190     Equipment.obj
 0002:000031a8       ??_R3Equipment@@8          0042e1a8     Equipment.obj
 0002:000031bc       ??_R2Equipment@@8          0042e1bc     Equipment.obj
 0002:000031c8       ??_R1A@?0A@EA@Equipment@@8 0042e1c8     Equipment.obj
 0002:000031ec       ??_R4HeroObject@@6B@       0042e1ec     HeroObject.obj
 0002:00003204       ??_R3HeroObject@@8         0042e204     HeroObject.obj
 0002:00003218       ??_R2HeroObject@@8         0042e218     HeroObject.obj
 0002:00003228       ??_R1A@?0A@EA@HeroObject@@8 0042e228     HeroObject.obj
 0002:0000324c       ??_R4BaseEngine@@6B@       0042e24c     BaseEngine.obj
 0002:00003264       ??_R3BaseEngine@@8         0042e264     BaseEngine.obj
 0002:00003278       ??_R2BaseEngine@@8         0042e278     BaseEngine.obj
 0002:00003280       ??_R1A@?0A@EA@BaseEngine@@8 0042e280     BaseEngine.obj
 0002:000032a4       ??_R4DisplayableObject@@6B@ 0042e2a4     DisplayableObject.obj
 0002:000032bc       ??_R4?$basic_ofstream@DU?$char_traits@D@std@@@std@@6B@ 0042e2bc     PsyagceEngine.obj
 0002:000032d4       ??_R3?$basic_ofstream@DU?$char_traits@D@std@@@std@@8 0042e2d4     PsyagceEngine.obj
 0002:000032e8       ??_R2?$basic_ofstream@DU?$char_traits@D@std@@@std@@8 0042e2e8     PsyagceEngine.obj
 0002:00003304       ??_R1A@?0A@EA@?$basic_ofstream@DU?$char_traits@D@std@@@std@@8 0042e304     PsyagceEngine.obj
 0002:00003328       ??_R1A@?0A@EA@?$basic_ostream@DU?$char_traits@D@std@@@std@@8 0042e328     PsyagceEngine.obj
 0002:0000334c       ??_R3?$basic_ostream@DU?$char_traits@D@std@@@std@@8 0042e34c     PsyagceEngine.obj
 0002:00003360       ??_R2?$basic_ostream@DU?$char_traits@D@std@@@std@@8 0042e360     PsyagceEngine.obj
 0002:00003374       ??_R4PsyagceEngine@@6B@    0042e374     PsyagceEngine.obj
 0002:0000338c       ??_R3PsyagceEngine@@8      0042e38c     PsyagceEngine.obj
 0002:000033a0       ??_R2PsyagceEngine@@8      0042e3a0     PsyagceEngine.obj
 0002:000033ac       ??_R1A@?0A@EA@PsyagceEngine@@8 0042e3ac     PsyagceEngine.obj
 0002:000033d0       ??_R4TileManager@@6B@      0042e3d0     PsyagceTileManager.obj
 0002:000033e8       ??_R3TileManager@@8        0042e3e8     PsyagceTileManager.obj
 0002:000033fc       ??_R2TileManager@@8        0042e3fc     PsyagceTileManager.obj
 0002:00003404       ??_R1A@?0A@EA@TileManager@@8 0042e404     PsyagceTileManager.obj
 0002:00003428       ??_R4PsyagceTileManager@@6B@ 0042e428     PsyagceTileManager.obj
 0002:00003440       ??_R3PsyagceTileManager@@8 0042e440     PsyagceTileManager.obj
 0002:00003454       ??_R2PsyagceTileManager@@8 0042e454     PsyagceTileManager.obj
 0002:00003460       ??_R1A@?0A@EA@PsyagceTileManager@@8 0042e460     PsyagceTileManager.obj
 0002:00003484       ??_R4SimpleShape@@6B@      0042e484     SimpleDemo.obj
 0002:0000349c       ??_R3SimpleShape@@8        0042e49c     SimpleDemo.obj
 0002:000034b0       ??_R2SimpleShape@@8        0042e4b0     SimpleDemo.obj
 0002:000034bc       ??_R1A@?0A@EA@SimpleShape@@8 0042e4bc     SimpleDemo.obj
 0002:000034e0       ??_R4SpriteObject@@6B@     0042e4e0     SpriteObject.obj
 0002:000034f8       ??_R4StatsBar@@6B@         0042e4f8     StatsBar.obj
 0002:00003510       ??_R3StatsBar@@8           0042e510     StatsBar.obj
 0002:00003524       ??_R2StatsBar@@8           0042e524     StatsBar.obj
 0002:00003530       ??_R1A@?0A@EA@StatsBar@@8  0042e530     StatsBar.obj
 0002:00003554       ??_R4BouncingBall@@6B@     0042e554     BouncingBall.obj
 0002:0000356c       ??_R3BouncingBall@@8       0042e56c     BouncingBall.obj
 0002:00003580       ??_R2BouncingBall@@8       0042e580     BouncingBall.obj
 0002:0000358c       ??_R1A@?0A@EA@BouncingBall@@8 0042e58c     BouncingBall.obj
 0002:000035b0       ??_R4BouncingBall1@@6B@    0042e5b0     BouncingBall.obj
 0002:000035c8       ??_R3BouncingBall1@@8      0042e5c8     BouncingBall.obj
 0002:000035dc       ??_R2BouncingBall1@@8      0042e5dc     BouncingBall.obj
 0002:000035ec       ??_R1A@?0A@EA@BouncingBall1@@8 0042e5ec     BouncingBall.obj
 0002:00003610       ??_R4BouncingBall2@@6B@    0042e610     BouncingBall.obj
 0002:00003628       ??_R3BouncingBall2@@8      0042e628     BouncingBall.obj
 0002:0000363c       ??_R2BouncingBall2@@8      0042e63c     BouncingBall.obj
 0002:0000364c       ??_R1A@?0A@EA@BouncingBall2@@8 0042e64c     BouncingBall.obj
 0002:00003670       ??_R4Demo1Main@@6B@        0042e670     Demo1Main.obj
 0002:00003688       ??_R3Demo1Main@@8          0042e688     Demo1Main.obj
 0002:0000369c       ??_R2Demo1Main@@8          0042e69c     Demo1Main.obj
 0002:000036a8       ??_R1A@?0A@EA@Demo1Main@@8 0042e6a8     Demo1Main.obj
 0002:000036cc       ??_R4Demo2Main@@6B@        0042e6cc     Demo2Main.obj
 0002:000036e4       ??_R3Demo2Main@@8          0042e6e4     Demo2Main.obj
 0002:000036f8       ??_R2Demo2Main@@8          0042e6f8     Demo2Main.obj
 0002:00003704       ??_R1A@?0A@EA@Demo2Main@@8 0042e704     Demo2Main.obj
 0002:00003728       ??_R4Demo2Object@@6B@      0042e728     Demo2Object.obj
 0002:00003740       ??_R3Demo2Object@@8        0042e740     Demo2Object.obj
 0002:00003754       ??_R2Demo2Object@@8        0042e754     Demo2Object.obj
 0002:00003760       ??_R1A@?0A@EA@Demo2Object@@8 0042e760     Demo2Object.obj
 0002:00003784       ??_R4Demo2TileManager@@6B@ 0042e784     Demo2TileManager.obj
 0002:0000379c       ??_R3Demo2TileManager@@8   0042e79c     Demo2TileManager.obj
 0002:000037b0       ??_R2Demo2TileManager@@8   0042e7b0     Demo2TileManager.obj
 0002:000037bc       ??_R1A@?0A@EA@Demo2TileManager@@8 0042e7bc     Demo2TileManager.obj
 0002:000037e0       ??_R4Demo3Main@@6B@        0042e7e0     Demo3Main.obj
 0002:000037f8       ??_R3Demo3Main@@8          0042e7f8     Demo3Main.obj
 0002:0000380c       ??_R2Demo3Main@@8          0042e80c     Demo3Main.obj
 0002:00003818       ??_R1A@?0A@EA@Demo3Main@@8 0042e818     Demo3Main.obj
 0002:0000383c       ??_R4Demo3Object@@6B@      0042e83c     Demo3Object.obj
 0002:00003854       ??_R3Demo3Object@@8        0042e854     Demo3Object.obj
 0002:00003868       ??_R2Demo3Object@@8        0042e868     Demo3Object.obj
 0002:00003874       ??_R1A@?0A@EA@Demo3Object@@8 0042e874     Demo3Object.obj
 0002:00003898       ??_R4Demo3ObjectFinished@@6B@ 0042e898     Demo3ObjectFinished.obj
 0002:000038b0       ??_R3Demo3ObjectFinished@@8 0042e8b0     Demo3ObjectFinished.obj
 0002:000038c4       ??_R2Demo3ObjectFinished@@8 0042e8c4     Demo3ObjectFinished.obj
 0002:000038d0       ??_R1A@?0A@EA@Demo3ObjectFinished@@8 0042e8d0     Demo3ObjectFinished.obj
 0002:000038f4       ??_R4Demo3TileManager@@6B@ 0042e8f4     Demo3TileManager.obj
 0002:0000390c       ??_R3Demo3TileManager@@8   0042e90c     Demo3TileManager.obj
 0002:00003920       ??_R2Demo3TileManager@@8   0042e920     Demo3TileManager.obj
 0002:0000392c       ??_R1A@?0A@EA@Demo3TileManager@@8 0042e92c     Demo3TileManager.obj
 0002:00003950       ??_R4Demo4Main@@6B@        0042e950     Demo4Main.obj
 0002:00003968       ??_R3Demo4Main@@8          0042e968     Demo4Main.obj
 0002:0000397c       ??_R2Demo4Main@@8          0042e97c     Demo4Main.obj
 0002:00003988       ??_R1A@?0A@EA@Demo4Main@@8 0042e988     Demo4Main.obj
 0002:000039ac       ??_R4Demo4Object@@6B@      0042e9ac     Demo4Object.obj
 0002:000039c4       ??_R3Demo4Object@@8        0042e9c4     Demo4Object.obj
 0002:000039d8       ??_R2Demo4Object@@8        0042e9d8     Demo4Object.obj
 0002:000039e4       ??_R1A@?0A@EA@Demo4Object@@8 0042e9e4     Demo4Object.obj
 0002:00003a08       ??_R4Demo4TileManager@@6B@ 0042ea08     Demo4TileManager.obj
 0002:00003a20       ??_R3Demo4TileManager@@8   0042ea20     Demo4TileManager.obj
 0002:00003a34       ??_R2Demo4TileManager@@8   0042ea34     Demo4TileManager.obj
 0002:00003a40       ??_R1A@?0A@EA@Demo4TileManager@@8 0042ea40     Demo4TileManager.obj
 0002:00003a64       ??_R4type_info@@6B@        0042ea64     MSVCRT:std_type_info_static.obj
 0002:00003a7c       ??_R3type_info@@8          0042ea7c     MSVCRT:std_type_info_static.obj
 0002:00003a90       ??_R2type_info@@8          0042ea90     MSVCRT:std_type_info_static.obj
 0002:00003a98       ??_R1A@?0A@EA@type_info@@8 0042ea98     MSVCRT:std_type_info_static.obj
 0002:00003abc       ??_R4bad_alloc@std@@6B@    0042eabc     MSVCRT:throw_bad_alloc.obj
 0002:00003ad4       ??_R3bad_alloc@std@@8      0042ead4     MSVCRT:throw_bad_alloc.obj
 0002:00003ae8       ??_R2bad_alloc@std@@8      0042eae8     MSVCRT:throw_bad_alloc.obj
 0002:00003af4       ??_R1A@?0A@EA@bad_alloc@std@@8 0042eaf4     MSVCRT:throw_bad_alloc.obj
 0002:00003b18       ??_R4bad_array_new_length@std@@6B@ 0042eb18     MSVCRT:throw_bad_alloc.obj
 0002:00003b30       ??_R3bad_array_new_length@std@@8 0042eb30     MSVCRT:throw_bad_alloc.obj
 0002:00003b44       ??_R2bad_array_new_length@std@@8 0042eb44     MSVCRT:throw_bad_alloc.obj
 0002:00003b54       ??_R1A@?0A@EA@bad_array_new_length@std@@8 0042eb54     MSVCRT:throw_bad_alloc.obj
 0002:00003ce0       ___safe_se_handler_table   0042ece0     <linker-defined>
 0002:000040e0       ___rtc_iaa                 0042f0e0     MSVCRT:_initsect_.obj
 0002:000041e4       ___rtc_izz                 0042f1e4     MSVCRT:_initsect_.obj
 0002:000042e8       ___rtc_taa                 0042f2e8     MSVCRT:_initsect_.obj
 0002:000043ec       ___rtc_tzz                 0042f3ec     MSVCRT:_initsect_.obj
 0002:000047f0       __CT??_R0?AVexception@std@@@8??0exception@std@@QAE@ABV01@@Z12 0042f7f0     EnemyObject.obj
 0002:00004810       __TI2?AVbad_cast@std@@     0042f810     EnemyObject.obj
 0002:00004824       __CTA2?AVbad_cast@std@@    0042f824     EnemyObject.obj
 0002:00004834       __CT??_R0?AVbad_cast@std@@@8??0bad_cast@std@@QAE@ABV01@@Z12 0042f834     EnemyObject.obj
 0002:000057b0       __TI2?AVbad_alloc@std@@    004307b0     MSVCRT:throw_bad_alloc.obj
 0002:000057c4       __CTA2?AVbad_alloc@std@@   004307c4     MSVCRT:throw_bad_alloc.obj
 0002:000057d4       __CT??_R0?AVbad_alloc@std@@@8??0bad_alloc@std@@QAE@ABV01@@Z12 004307d4     MSVCRT:throw_bad_alloc.obj
 0002:000057f4       __TI3?AVbad_array_new_length@std@@ 004307f4     MSVCRT:throw_bad_alloc.obj
 0002:00005808       __CTA3?AVbad_array_new_length@std@@ 00430808     MSVCRT:throw_bad_alloc.obj
 0002:0000581c       __CT??_R0?AVbad_array_new_length@std@@@8??0bad_array_new_length@std@@QAE@ABV01@@Z12 0043081c     MSVCRT:throw_bad_alloc.obj
 0003:00000000       ___security_cookie         00431000     MSVCRT:gs_cookie.obj
 0003:00000004       ___security_cookie_complement 00431004     MSVCRT:gs_cookie.obj
 0003:0000000c       ___scrt_native_dllmain_reason 0043100c     MSVCRT:utility.obj
 0003:00000010       __fltused                  00431010     MSVCRT:fltused.obj
 0003:00000014       ___scrt_default_matherr    00431014     MSVCRT:matherr.obj
 0003:00000020       ___isa_enabled             00431020     MSVCRT:_cpu_disp_.obj
 0003:00000024       ___scrt_ucrt_dll_is_in_use 00431024     MSVCRT:ucrt_stubs.obj
 0003:00000130       ??_R0?AVArrowObject@@@8    00431130     ArrowObject.obj
 0003:00000150       ??_R0?AVDisplayableObject@@@8 00431150     ArrowObject.obj
 0003:00000178       ??_R0?AVexception@std@@@8  00431178     EnemyObject.obj
 0003:0000019c       ??_R0?AVbad_cast@std@@@8   0043119c     EnemyObject.obj
 0003:000001bc       ??_R0?AV?$basic_filebuf@DU?$char_traits@D@std@@@std@@@8 004311bc     EnemyObject.obj
 0003:00000204       ??_R0?AV?$basic_streambuf@DU?$char_traits@D@std@@@std@@@8 00431204     EnemyObject.obj
 0003:0000024c       ??_R0?AV?$basic_ifstream@DU?$char_traits@D@std@@@std@@@8 0043124c     EnemyObject.obj
 0003:00000294       ??_R0?AV?$basic_istream@DU?$char_traits@D@std@@@std@@@8 00431294     EnemyObject.obj
 0003:000002dc       ??_R0?AV?$basic_ios@DU?$char_traits@D@std@@@std@@@8 004312dc     EnemyObject.obj
 0003:0000031c       ??_R0?AVios_base@std@@@8   0043131c     EnemyObject.obj
 0003:0000033c       ??_R0?AV?$_Iosb@H@std@@@8  0043133c     EnemyObject.obj
 0003:00000360       ??_R0?AVEnemyObject@@@8    00431360     EnemyObject.obj
 0003:00000380       ??_R0?AVSpriteObject@@@8   00431380     EnemyObject.obj
 0003:000003a0       ??_R0?AVEquipment@@@8      004313a0     Equipment.obj
 0003:000003bc       ??_R0?AVHeroObject@@@8     004313bc     HeroObject.obj
 0003:000003dc       ??_R0?AVBaseEngine@@@8     004313dc     BaseEngine.obj
 0003:000003fc       ??_R0?AV?$basic_ofstream@DU?$char_traits@D@std@@@std@@@8 004313fc     PsyagceEngine.obj
 0003:00000444       ??_R0?AV?$basic_ostream@DU?$char_traits@D@std@@@std@@@8 00431444     PsyagceEngine.obj
 0003:0000048c       ??_R0?AVPsyagceEngine@@@8  0043148c     PsyagceEngine.obj
 0003:000004b0       ??_R0?AVTileManager@@@8    004314b0     PsyagceTileManager.obj
 0003:000004d0       ??_R0?AVPsyagceTileManager@@@8 004314d0     PsyagceTileManager.obj
 0003:000004f8       ??_R0?AVSimpleShape@@@8    004314f8     SimpleDemo.obj
 0003:00000518       ??_R0?AVStatsBar@@@8       00431518     StatsBar.obj
 0003:00000534       ??_R0?AVBouncingBall@@@8   00431534     BouncingBall.obj
 0003:00000554       ??_R0?AVBouncingBall1@@@8  00431554     BouncingBall.obj
 0003:00000578       ??_R0?AVBouncingBall2@@@8  00431578     BouncingBall.obj
 0003:0000059c       ??_R0?AVDemo1Main@@@8      0043159c     Demo1Main.obj
 0003:000005b8       ??_R0?AVDemo2Main@@@8      004315b8     Demo2Main.obj
 0003:000005d4       ??_R0?AVDemo2Object@@@8    004315d4     Demo2Object.obj
 0003:000005f4       ??_R0?AVDemo2TileManager@@@8 004315f4     Demo2TileManager.obj
 0003:0000061c       ??_R0?AVDemo3Main@@@8      0043161c     Demo3Main.obj
 0003:00000638       ??_R0?AVDemo3Object@@@8    00431638     Demo3Object.obj
 0003:00000658       ??_R0?AVDemo3ObjectFinished@@@8 00431658     Demo3ObjectFinished.obj
 0003:00000680       ??_R0?AVDemo3TileManager@@@8 00431680     Demo3TileManager.obj
 0003:000006a8       ??_R0?AVDemo4Main@@@8      004316a8     Demo4Main.obj
 0003:000006c4       ??_R0?AVDemo4Object@@@8    004316c4     Demo4Object.obj
 0003:000006e4       ??_R0?AVDemo4TileManager@@@8 004316e4     Demo4TileManager.obj
 0003:0000070c       ??_R0?AVtype_info@@@8      0043170c     MSVCRT:std_type_info_static.obj
 0003:00000728       ??_R0?AVbad_alloc@std@@@8  00431728     MSVCRT:throw_bad_alloc.obj
 0003:0000074c       ??_R0?AVbad_array_new_length@std@@@8 0043174c     MSVCRT:throw_bad_alloc.obj
 0003:00000898       ?_OptionsStorage@?1??__local_stdio_printf_options@@9@4_KA 00431898     ArrowObject.obj
 0003:000008a4       ?_Stinit@?1??_Init@?$basic_filebuf@DU?$char_traits@D@std@@@std@@IAEXPAU_iobuf@@W4_Initfl@23@@Z@4U_Mbstatet@@A 004318a4     EnemyObject.obj
 0003:000008b0       ?_Psave@?$_Facetptr@V?$codecvt@DDU_Mbstatet@@@std@@@std@@2PBVfacet@locale@2@B 004318b0     EnemyObject.obj
 0003:000008b4       ?g_iGlobalRotation@ImageData@@1HA 004318b4     JPGImage.obj
 0003:000008b8       ?g_iGlobalCropLeft@ImageData@@1HA 004318b8     JPGImage.obj
 0003:000008bc       ?g_iGlobalCropRight@ImageData@@1HA 004318bc     JPGImage.obj
 0003:000008c0       ?g_iGlobalCropTop@ImageData@@1HA 004318c0     JPGImage.obj
 0003:000008c4       ?g_iGlobalCropBottom@ImageData@@1HA 004318c4     JPGImage.obj
 0003:000008cc       ?_Psave@?$_Facetptr@V?$ctype@D@std@@@std@@2PBVfacet@locale@2@B 004318cc     PsyagceEngine.obj
 0003:000008d8       ___scrt_current_native_startup_state 004318d8     MSVCRT:utility.obj
 0003:000008dc       ___scrt_native_startup_lock 004318dc     MSVCRT:utility.obj
 0003:00000900       ?__type_info_root_node@@3U__type_info_node@@A 00431900     MSVCRT:tncleanup.obj
 0003:00000910       ?_OptionsStorage@?1??__local_stdio_scanf_options@@9@4_KA 00431910     MSVCRT:default_local_stdio_options.obj
 0003:0000091c       ___scrt_debugger_hook_flag 0043191c     MSVCRT:utility_desktop.obj
 0003:00000cdc       ___isa_available           00431cdc     MSVCRT:_cpu_disp_.obj
 0003:00000ce0       ___favor                   00431ce0     MSVCRT:_cpu_disp_.obj
 0003:00000ce8       ___dyn_tls_dtor_callback   00431ce8     <common>
 0003:00000cf4       ___dyn_tls_init_callback   00431cf4     <common>
 0004:00000000       __imp__QueryPerformanceCounter@4 00432000     kernel32:KERNEL32.dll
 0004:00000004       __imp__GetCurrentProcessId@0 00432004     kernel32:KERNEL32.dll
 0004:00000008       __imp__GetCurrentThreadId@0 00432008     kernel32:KERNEL32.dll
 0004:0000000c       __imp__GetSystemTimeAsFileTime@4 0043200c     kernel32:KERNEL32.dll
 0004:00000010       __imp__InitializeSListHead@4 00432010     kernel32:KERNEL32.dll
 0004:00000014       __imp__IsDebuggerPresent@0 00432014     kernel32:KERNEL32.dll
 0004:00000018       __imp__UnhandledExceptionFilter@4 00432018     kernel32:KERNEL32.dll
 0004:0000001c       __imp__SetUnhandledExceptionFilter@4 0043201c     kernel32:KERNEL32.dll
 0004:00000020       __imp__GetStartupInfoW@4   00432020     kernel32:KERNEL32.dll
 0004:00000024       __imp__IsProcessorFeaturePresent@4 00432024     kernel32:KERNEL32.dll
 0004:00000028       __imp__GetModuleHandleW@4  00432028     kernel32:KERNEL32.dll
 0004:0000002c       __imp__GetCurrentProcess@0 0043202c     kernel32:KERNEL32.dll
 0004:00000030       __imp__GetCommandLineW@0   00432030     kernel32:KERNEL32.dll
 0004:00000034       __imp__TerminateProcess@8  00432034     kernel32:KERNEL32.dll
 0004:00000038       \177KERNEL32_NULL_THUNK_DATA 00432038     kernel32:KERNEL32.dll
 0004:0000006c       __imp_?_Ipfx@?$basic_istream@DU?$char_traits@D@std@@@std@@QAE_N_N@Z 0043206c     msvcprt:MSVCP140.dll
 0004:00000070       __imp_??6?$basic_ostream@DU?$char_traits@D@std@@@std@@QAEAAV01@_N@Z 00432070     msvcprt:MSVCP140.dll
 0004:00000074       __imp_?_Osfx@?$basic_ostream@DU?$char_traits@D@std@@@std@@QAEXXZ 00432074     msvcprt:MSVCP140.dll
 0004:00000078       __imp_??1?$basic_ostream@DU?$char_traits@D@std@@@std@@UAE@XZ 00432078     msvcprt:MSVCP140.dll
 0004:0000007c       __imp_??0?$basic_ostream@DU?$char_traits@D@std@@@std@@QAE@PAV?$basic_streambuf@DU?$char_traits@D@std@@@1@_N@Z 0043207c     msvcprt:MSVCP140.dll
 0004:00000080       __imp_?fill@?$basic_ios@DU?$char_traits@D@std@@@std@@QBEDXZ 00432080     msvcprt:MSVCP140.dll
 0004:00000084       __imp_?rdbuf@?$basic_ios@DU?$char_traits@D@std@@@std@@QBEPAV?$basic_streambuf@DU?$char_traits@D@std@@@2@XZ 00432084     msvcprt:MSVCP140.dll
 0004:00000088       __imp_?tie@?$basic_ios@DU?$char_traits@D@std@@@std@@QBEPAV?$basic_ostream@DU?$char_traits@D@std@@@2@XZ 00432088     msvcprt:MSVCP140.dll
 0004:0000008c       __imp_?sputn@?$basic_streambuf@DU?$char_traits@D@std@@@std@@QAE_JPBD_J@Z 0043208c     msvcprt:MSVCP140.dll
 0004:00000090       __imp_??5?$basic_istream@DU?$char_traits@D@std@@@std@@QAEAAV01@AA_N@Z 00432090     msvcprt:MSVCP140.dll
 0004:00000094       __imp_?cerr@std@@3V?$basic_ostream@DU?$char_traits@D@std@@@1@A 00432094     msvcprt:MSVCP140.dll
 0004:00000098       __imp_?id@?$ctype@D@std@@2V0locale@2@A 00432098     msvcprt:MSVCP140.dll
 0004:0000009c       __imp_??0_Lockit@std@@QAE@H@Z 0043209c     msvcprt:MSVCP140.dll
 0004:000000a0       __imp_??1_Lockit@std@@QAE@XZ 004320a0     msvcprt:MSVCP140.dll
 0004:000000a4       __imp_?_Xlength_error@std@@YAXPBD@Z 004320a4     msvcprt:MSVCP140.dll
 0004:000000a8       __imp_?_Xout_of_range@std@@YAXPBD@Z 004320a8     msvcprt:MSVCP140.dll
 0004:000000ac       __imp_??Bid@locale@std@@QAEIXZ 004320ac     msvcprt:MSVCP140.dll
 0004:000000b0       __imp_?_Getgloballocale@locale@std@@CAPAV_Locimp@12@XZ 004320b0     msvcprt:MSVCP140.dll
 0004:000000b4       __imp_?always_noconv@codecvt_base@std@@QBE_NXZ 004320b4     msvcprt:MSVCP140.dll
 0004:000000b8       __imp_?in@?$codecvt@DDU_Mbstatet@@@std@@QBEHAAU_Mbstatet@@PBD1AAPBDPAD3AAPAD@Z 004320b8     msvcprt:MSVCP140.dll
 0004:000000bc       __imp_?out@?$codecvt@DDU_Mbstatet@@@std@@QBEHAAU_Mbstatet@@PBD1AAPBDPAD3AAPAD@Z 004320bc     msvcprt:MSVCP140.dll
 0004:000000c0       __imp_?unshift@?$codecvt@DDU_Mbstatet@@@std@@QBEHAAU_Mbstatet@@PAD1AAPAD@Z 004320c0     msvcprt:MSVCP140.dll
 0004:000000c4       __imp_?_Getcat@?$codecvt@DDU_Mbstatet@@@std@@SAIPAPBVfacet@locale@2@PBV42@@Z 004320c4     msvcprt:MSVCP140.dll
 0004:000000c8       __imp_??Bios_base@std@@QBE_NXZ 004320c8     msvcprt:MSVCP140.dll
 0004:000000cc       __imp_??0?$basic_streambuf@DU?$char_traits@D@std@@@std@@IAE@XZ 004320cc     msvcprt:MSVCP140.dll
 0004:000000d0       __imp_??1?$basic_streambuf@DU?$char_traits@D@std@@@std@@UAE@XZ 004320d0     msvcprt:MSVCP140.dll
 0004:000000d4       __imp_?getloc@?$basic_streambuf@DU?$char_traits@D@std@@@std@@QBE?AVlocale@2@XZ 004320d4     msvcprt:MSVCP140.dll
 0004:000000d8       __imp_?eback@?$basic_streambuf@DU?$char_traits@D@std@@@std@@IBEPADXZ 004320d8     msvcprt:MSVCP140.dll
 0004:000000dc       __imp_?gptr@?$basic_streambuf@DU?$char_traits@D@std@@@std@@IBEPADXZ 004320dc     msvcprt:MSVCP140.dll
 0004:000000e0       __imp_?pptr@?$basic_streambuf@DU?$char_traits@D@std@@@std@@IBEPADXZ 004320e0     msvcprt:MSVCP140.dll
 0004:000000e4       __imp_?egptr@?$basic_streambuf@DU?$char_traits@D@std@@@std@@IBEPADXZ 004320e4     msvcprt:MSVCP140.dll
 0004:000000e8       __imp_?setg@?$basic_streambuf@DU?$char_traits@D@std@@@std@@IAEXPAD00@Z 004320e8     msvcprt:MSVCP140.dll
 0004:000000ec       __imp_?epptr@?$basic_streambuf@DU?$char_traits@D@std@@@std@@IBEPADXZ 004320ec     msvcprt:MSVCP140.dll
 0004:000000f0       __imp_?_Gndec@?$basic_streambuf@DU?$char_traits@D@std@@@std@@IAEPADXZ 004320f0     msvcprt:MSVCP140.dll
 0004:000000f4       __imp_?_Gninc@?$basic_streambuf@DU?$char_traits@D@std@@@std@@IAEPADXZ 004320f4     msvcprt:MSVCP140.dll
 0004:000000f8       __imp_?_Pninc@?$basic_streambuf@DU?$char_traits@D@std@@@std@@IAEPADXZ 004320f8     msvcprt:MSVCP140.dll
 0004:000000fc       __imp_?_Init@?$basic_streambuf@DU?$char_traits@D@std@@@std@@IAEXXZ 004320fc     msvcprt:MSVCP140.dll
 0004:00000100       __imp_?_Init@?$basic_streambuf@DU?$char_traits@D@std@@@std@@IAEXPAPAD0PAH001@Z 00432100     msvcprt:MSVCP140.dll
 0004:00000104       __imp_??1?$basic_ios@DU?$char_traits@D@std@@@std@@UAE@XZ 00432104     msvcprt:MSVCP140.dll
 0004:00000108       __imp_?setstate@?$basic_ios@DU?$char_traits@D@std@@@std@@QAEXH_N@Z 00432108     msvcprt:MSVCP140.dll
 0004:0000010c       __imp_??0?$basic_ios@DU?$char_traits@D@std@@@std@@IAE@XZ 0043210c     msvcprt:MSVCP140.dll
 0004:00000110       __imp_??0?$basic_istream@DU?$char_traits@D@std@@@std@@QAE@PAV?$basic_streambuf@DU?$char_traits@D@std@@@1@_N@Z 00432110     msvcprt:MSVCP140.dll
 0004:00000114       __imp_??1?$basic_istream@DU?$char_traits@D@std@@@std@@UAE@XZ 00432114     msvcprt:MSVCP140.dll
 0004:00000118       __imp_??5?$basic_istream@DU?$char_traits@D@std@@@std@@QAEAAV01@AAH@Z 00432118     msvcprt:MSVCP140.dll
 0004:0000011c       __imp_?_Fiopen@std@@YAPAU_iobuf@@PBDHH@Z 0043211c     msvcprt:MSVCP140.dll
 0004:00000120       __imp_?showmanyc@?$basic_streambuf@DU?$char_traits@D@std@@@std@@MAE_JXZ 00432120     msvcprt:MSVCP140.dll
 0004:00000124       __imp_?xsgetn@?$basic_streambuf@DU?$char_traits@D@std@@@std@@MAE_JPAD_J@Z 00432124     msvcprt:MSVCP140.dll
 0004:00000128       __imp_?xsputn@?$basic_streambuf@DU?$char_traits@D@std@@@std@@MAE_JPBD_J@Z 00432128     msvcprt:MSVCP140.dll
 0004:0000012c       __imp_?_BADOFF@std@@3_JB   0043212c     msvcprt:MSVCP140.dll
 0004:00000130       __imp_?id@?$codecvt@DDU_Mbstatet@@@std@@2V0locale@2@A 00432130     msvcprt:MSVCP140.dll
 0004:00000134       __imp_?widen@?$basic_ios@DU?$char_traits@D@std@@@std@@QBEDD@Z 00432134     msvcprt:MSVCP140.dll
 0004:00000138       __imp_??6?$basic_ostream@DU?$char_traits@D@std@@@std@@QAEAAV01@P6AAAV01@AAV01@@Z@Z 00432138     msvcprt:MSVCP140.dll
 0004:0000013c       __imp_??6?$basic_ostream@DU?$char_traits@D@std@@@std@@QAEAAV01@H@Z 0043213c     msvcprt:MSVCP140.dll
 0004:00000140       __imp_?put@?$basic_ostream@DU?$char_traits@D@std@@@std@@QAEAAV12@D@Z 00432140     msvcprt:MSVCP140.dll
 0004:00000144       __imp_?flush@?$basic_ostream@DU?$char_traits@D@std@@@std@@QAEAAV12@XZ 00432144     msvcprt:MSVCP140.dll
 0004:00000148       __imp_?cout@std@@3V?$basic_ostream@DU?$char_traits@D@std@@@1@A 00432148     msvcprt:MSVCP140.dll
 0004:0000014c       __imp_?uncaught_exceptions@std@@YAHXZ 0043214c     msvcprt:MSVCP140.dll
 0004:00000150       __imp_?is@?$ctype@D@std@@QBE_NFD@Z 00432150     msvcprt:MSVCP140.dll
 0004:00000154       __imp_?_Getcat@?$ctype@D@std@@SAIPAPBVfacet@locale@2@PBV42@@Z 00432154     msvcprt:MSVCP140.dll
 0004:00000158       __imp_??7ios_base@std@@QBE_NXZ 00432158     msvcprt:MSVCP140.dll
 0004:0000015c       __imp_?good@ios_base@std@@QBE_NXZ 0043215c     msvcprt:MSVCP140.dll
 0004:00000160       __imp_?flags@ios_base@std@@QBEHXZ 00432160     msvcprt:MSVCP140.dll
 0004:00000164       __imp_?width@ios_base@std@@QBE_JXZ 00432164     msvcprt:MSVCP140.dll
 0004:00000168       __imp_?width@ios_base@std@@QAE_J_J@Z 00432168     msvcprt:MSVCP140.dll
 0004:0000016c       __imp_?getloc@ios_base@std@@QBE?AVlocale@2@XZ 0043216c     msvcprt:MSVCP140.dll
 0004:00000170       __imp_?sgetc@?$basic_streambuf@DU?$char_traits@D@std@@@std@@QAEHXZ 00432170     msvcprt:MSVCP140.dll
 0004:00000174       __imp_?snextc@?$basic_streambuf@DU?$char_traits@D@std@@@std@@QAEHXZ 00432174     msvcprt:MSVCP140.dll
 0004:00000178       __imp_?sputc@?$basic_streambuf@DU?$char_traits@D@std@@@std@@QAEHD@Z 00432178     msvcprt:MSVCP140.dll
 0004:0000017c       \177MSVCP140_NULL_THUNK_DATA 0043217c     msvcprt:MSVCP140.dll
 0004:000001dc       __imp__SDL_free            004321dc     SDL2:SDL2.dll
 0004:000001e0       __imp__SDL_isspace         004321e0     SDL2:SDL2.dll
 0004:000001e4       __imp__SDL_wcslen          004321e4     SDL2:SDL2.dll
 0004:000001e8       __imp__SDL_iconv_string    004321e8     SDL2:SDL2.dll
 0004:000001ec       __imp__SDL_SetMainReady    004321ec     SDL2:SDL2.dll
 0004:000001f0       __imp__SDL_Quit            004321f0     SDL2:SDL2.dll
 0004:000001f4       __imp__SDL_Init            004321f4     SDL2:SDL2.dll
 0004:000001f8       __imp__SDL_Delay           004321f8     SDL2:SDL2.dll
 0004:000001fc       __imp__SDL_GetTicks        004321fc     SDL2:SDL2.dll
 0004:00000200       __imp__SDL_RenderPresent   00432200     SDL2:SDL2.dll
 0004:00000204       __imp__SDL_RenderCopy      00432204     SDL2:SDL2.dll
 0004:00000208       __imp__SDL_malloc          00432208     SDL2:SDL2.dll
 0004:0000020c       __imp__SDL_UpdateTexture   0043220c     SDL2:SDL2.dll
 0004:00000210       __imp__SDL_CreateTexture   00432210     SDL2:SDL2.dll
 0004:00000214       __imp__SDL_CreateRenderer  00432214     SDL2:SDL2.dll
 0004:00000218       __imp__SDL_ShowSimpleMessageBox 00432218     SDL2:SDL2.dll
 0004:0000021c       __imp__SDL_PollEvent       0043221c     SDL2:SDL2.dll
 0004:00000220       __imp__SDL_CreateWindow    00432220     SDL2:SDL2.dll
 0004:00000224       __imp__SDL_UpperBlit       00432224     SDL2:SDL2.dll
 0004:00000228       __imp__SDL_FillRect        00432228     SDL2:SDL2.dll
 0004:0000022c       __imp__SDL_UnlockSurface   0043222c     SDL2:SDL2.dll
 0004:00000230       __imp__SDL_LockSurface     00432230     SDL2:SDL2.dll
 0004:00000234       __imp__SDL_FreeSurface     00432234     SDL2:SDL2.dll
 0004:00000238       __imp__SDL_CreateRGBSurface 00432238     SDL2:SDL2.dll
 0004:0000023c       __imp__SDL_GetError        0043223c     SDL2:SDL2.dll
 0004:00000240       \177SDL2_NULL_THUNK_DATA   00432240     SDL2:SDL2.dll
 0004:00000280       __imp__IMG_Load            00432280     SDL2_image:SDL2_image.dll
 0004:00000284       \177SDL2_image_NULL_THUNK_DATA 00432284     SDL2_image:SDL2_image.dll
 0004:000002b0       __imp__TTF_RenderText_Solid 004322b0     SDL2_ttf:SDL2_ttf.dll
 0004:000002b4       __imp__TTF_Init            004322b4     SDL2_ttf:SDL2_ttf.dll
 0004:000002b8       __imp__TTF_OpenFont        004322b8     SDL2_ttf:SDL2_ttf.dll
 0004:000002bc       __imp__TTF_Quit            004322bc     SDL2_ttf:SDL2_ttf.dll
 0004:000002c0       __imp__TTF_CloseFont       004322c0     SDL2_ttf:SDL2_ttf.dll
 0004:000002c4       \177SDL2_ttf_NULL_THUNK_DATA 004322c4     SDL2_ttf:SDL2_ttf.dll
 0004:000002f4       __imp__memset              004322f4     vcruntime:VCRUNTIME140.dll
 0004:000002f8       __imp____CxxFrameHandler3  004322f8     vcruntime:VCRUNTIME140.dll
 0004:000002fc       __imp__memcpy              004322fc     vcruntime:VCRUNTIME140.dll
 0004:00000300       __imp__memmove             00432300     vcruntime:VCRUNTIME140.dll
 0004:00000304       __imp____std_exception_copy 00432304     vcruntime:VCRUNTIME140.dll
 0004:00000308       __imp____std_exception_destroy 00432308     vcruntime:VCRUNTIME140.dll
 0004:0000030c       __imp___except_handler4_common 0043230c     vcruntime:VCRUNTIME140.dll
 0004:00000310       __imp____std_type_info_destroy_list 00432310     vcruntime:VCRUNTIME140.dll
 0004:00000314       __imp___CxxThrowException@8 00432314     vcruntime:VCRUNTIME140.dll
 0004:00000318       __imp__memcmp              00432318     vcruntime:VCRUNTIME140.dll
 0004:0000031c       \177VCRUNTIME140_NULL_THUNK_DATA 0043231c     vcruntime:VCRUNTIME140.dll
 0004:00000350       __imp___lock_file          00432350     ucrt:api-ms-win-crt-filesystem-l1-1-0.dll
 0004:00000354       __imp___unlock_file        00432354     ucrt:api-ms-win-crt-filesystem-l1-1-0.dll
 0004:00000358       \177api-ms-win-crt-filesystem-l1-1-0_NULL_THUNK_DATA 00432358     ucrt:api-ms-win-crt-filesystem-l1-1-0.dll
 0004:00000384       __imp__free                00432384     ucrt:api-ms-win-crt-heap-l1-1-0.dll
 0004:00000388       __imp__malloc              00432388     ucrt:api-ms-win-crt-heap-l1-1-0.dll
 0004:0000038c       __imp___callnewh           0043238c     ucrt:api-ms-win-crt-heap-l1-1-0.dll
 0004:00000390       __imp___set_new_mode       00432390     ucrt:api-ms-win-crt-heap-l1-1-0.dll
 0004:00000394       \177api-ms-win-crt-heap-l1-1-0_NULL_THUNK_DATA 00432394     ucrt:api-ms-win-crt-heap-l1-1-0.dll
 0004:000003c0       __imp___configthreadlocale 004323c0     ucrt:api-ms-win-crt-locale-l1-1-0.dll
 0004:000003c4       \177api-ms-win-crt-locale-l1-1-0_NULL_THUNK_DATA 004323c4     ucrt:api-ms-win-crt-locale-l1-1-0.dll
 0004:000003f0       __imp____setusermatherr    004323f0     ucrt:api-ms-win-crt-math-l1-1-0.dll
 0004:000003f4       __imp__cos                 004323f4     ucrt:api-ms-win-crt-math-l1-1-0.dll
 0004:000003f8       __imp__atan                004323f8     ucrt:api-ms-win-crt-math-l1-1-0.dll
 0004:000003fc       __imp__sin                 004323fc     ucrt:api-ms-win-crt-math-l1-1-0.dll
 0004:00000400       \177api-ms-win-crt-math-l1-1-0_NULL_THUNK_DATA 00432400     ucrt:api-ms-win-crt-math-l1-1-0.dll
 0004:0000042c       __imp___initterm           0043242c     ucrt:api-ms-win-crt-runtime-l1-1-0.dll
 0004:00000430       __imp___initterm_e         00432430     ucrt:api-ms-win-crt-runtime-l1-1-0.dll
 0004:00000434       __imp___exit               00432434     ucrt:api-ms-win-crt-runtime-l1-1-0.dll
 0004:00000438       __imp___invalid_parameter_noinfo_noreturn 00432438     ucrt:api-ms-win-crt-runtime-l1-1-0.dll
 0004:0000043c       __imp____p___argc          0043243c     ucrt:api-ms-win-crt-runtime-l1-1-0.dll
 0004:00000440       __imp____p___argv          00432440     ucrt:api-ms-win-crt-runtime-l1-1-0.dll
 0004:00000444       __imp___cexit              00432444     ucrt:api-ms-win-crt-runtime-l1-1-0.dll
 0004:00000448       __imp___c_exit             00432448     ucrt:api-ms-win-crt-runtime-l1-1-0.dll
 0004:0000044c       __imp___register_thread_local_exe_atexit_callback 0043244c     ucrt:api-ms-win-crt-runtime-l1-1-0.dll
 0004:00000450       __imp___get_initial_narrow_environment 00432450     ucrt:api-ms-win-crt-runtime-l1-1-0.dll
 0004:00000454       __imp___errno              00432454     ucrt:api-ms-win-crt-runtime-l1-1-0.dll
 0004:00000458       __imp___initialize_narrow_environment 00432458     ucrt:api-ms-win-crt-runtime-l1-1-0.dll
 0004:0000045c       __imp__exit                0043245c     ucrt:api-ms-win-crt-runtime-l1-1-0.dll
 0004:00000460       __imp___configure_narrow_argv 00432460     ucrt:api-ms-win-crt-runtime-l1-1-0.dll
 0004:00000464       __imp___seh_filter_dll     00432464     ucrt:api-ms-win-crt-runtime-l1-1-0.dll
 0004:00000468       __imp___initialize_onexit_table 00432468     ucrt:api-ms-win-crt-runtime-l1-1-0.dll
 0004:0000046c       __imp___register_onexit_function 0043246c     ucrt:api-ms-win-crt-runtime-l1-1-0.dll
 0004:00000470       __imp___execute_onexit_table 00432470     ucrt:api-ms-win-crt-runtime-l1-1-0.dll
 0004:00000474       __imp___crt_atexit         00432474     ucrt:api-ms-win-crt-runtime-l1-1-0.dll
 0004:00000478       __imp___crt_at_quick_exit  00432478     ucrt:api-ms-win-crt-runtime-l1-1-0.dll
 0004:0000047c       __imp__terminate           0043247c     ucrt:api-ms-win-crt-runtime-l1-1-0.dll
 0004:00000480       __imp___controlfp_s        00432480     ucrt:api-ms-win-crt-runtime-l1-1-0.dll
 0004:00000484       __imp___set_app_type       00432484     ucrt:api-ms-win-crt-runtime-l1-1-0.dll
 0004:00000488       __imp___wassert            00432488     ucrt:api-ms-win-crt-runtime-l1-1-0.dll
 0004:0000048c       __imp___invalid_parameter_noinfo 0043248c     ucrt:api-ms-win-crt-runtime-l1-1-0.dll
 0004:00000490       __imp___seh_filter_exe     00432490     ucrt:api-ms-win-crt-runtime-l1-1-0.dll
 0004:00000494       \177api-ms-win-crt-runtime-l1-1-0_NULL_THUNK_DATA 00432494     ucrt:api-ms-win-crt-runtime-l1-1-0.dll
 0004:000004d4       __imp___set_fmode          004324d4     ucrt:api-ms-win-crt-stdio-l1-1-0.dll
 0004:000004d8       __imp___get_stream_buffer_pointers 004324d8     ucrt:api-ms-win-crt-stdio-l1-1-0.dll
 0004:000004dc       __imp__fclose              004324dc     ucrt:api-ms-win-crt-stdio-l1-1-0.dll
 0004:000004e0       __imp__fflush              004324e0     ucrt:api-ms-win-crt-stdio-l1-1-0.dll
 0004:000004e4       __imp__fgetc               004324e4     ucrt:api-ms-win-crt-stdio-l1-1-0.dll
 0004:000004e8       __imp____stdio_common_vfprintf 004324e8     ucrt:api-ms-win-crt-stdio-l1-1-0.dll
 0004:000004ec       __imp____acrt_iob_func     004324ec     ucrt:api-ms-win-crt-stdio-l1-1-0.dll
 0004:000004f0       __imp____p__commode        004324f0     ucrt:api-ms-win-crt-stdio-l1-1-0.dll
 0004:000004f4       __imp__fgetpos             004324f4     ucrt:api-ms-win-crt-stdio-l1-1-0.dll
 0004:000004f8       __imp__fputc               004324f8     ucrt:api-ms-win-crt-stdio-l1-1-0.dll
 0004:000004fc       __imp____stdio_common_vsprintf 004324fc     ucrt:api-ms-win-crt-stdio-l1-1-0.dll
 0004:00000500       __imp__fsetpos             00432500     ucrt:api-ms-win-crt-stdio-l1-1-0.dll
 0004:00000504       __imp__ungetc              00432504     ucrt:api-ms-win-crt-stdio-l1-1-0.dll
 0004:00000508       __imp__setvbuf             00432508     ucrt:api-ms-win-crt-stdio-l1-1-0.dll
 0004:0000050c       __imp__fwrite              0043250c     ucrt:api-ms-win-crt-stdio-l1-1-0.dll
 0004:00000510       __imp___fseeki64           00432510     ucrt:api-ms-win-crt-stdio-l1-1-0.dll
 0004:00000514       \177api-ms-win-crt-stdio-l1-1-0_NULL_THUNK_DATA 00432514     ucrt:api-ms-win-crt-stdio-l1-1-0.dll
 0004:0000054c       __imp__strlen              0043254c     ucrt:api-ms-win-crt-string-l1-1-0.dll
 0004:00000550       __imp__strcmp              00432550     ucrt:api-ms-win-crt-string-l1-1-0.dll
 0004:00000554       __imp__strcpy              00432554     ucrt:api-ms-win-crt-string-l1-1-0.dll
 0004:00000558       \177api-ms-win-crt-string-l1-1-0_NULL_THUNK_DATA 00432558     ucrt:api-ms-win-crt-string-l1-1-0.dll
 0004:00000584       __imp___time64             00432584     ucrt:api-ms-win-crt-time-l1-1-0.dll
 0004:00000588       \177api-ms-win-crt-time-l1-1-0_NULL_THUNK_DATA 00432588     ucrt:api-ms-win-crt-time-l1-1-0.dll
 0004:000005b4       __imp__rand                004325b4     ucrt:api-ms-win-crt-utility-l1-1-0.dll
 0004:000005b8       __imp__abs                 004325b8     ucrt:api-ms-win-crt-utility-l1-1-0.dll
 0004:000005bc       __imp__srand               004325bc     ucrt:api-ms-win-crt-utility-l1-1-0.dll
 0004:000005c0       \177api-ms-win-crt-utility-l1-1-0_NULL_THUNK_DATA 004325c0     ucrt:api-ms-win-crt-utility-l1-1-0.dll
 0004:000005ec       __IMPORT_DESCRIPTOR_SDL2   004325ec     SDL2:SDL2.dll
 0004:00000600       __IMPORT_DESCRIPTOR_SDL2_image 00432600     SDL2_image:SDL2_image.dll
 0004:00000614       __IMPORT_DESCRIPTOR_SDL2_ttf 00432614     SDL2_ttf:SDL2_ttf.dll
 0004:00000628       __IMPORT_DESCRIPTOR_MSVCP140 00432628     msvcprt:MSVCP140.dll
 0004:0000063c       __IMPORT_DESCRIPTOR_VCRUNTIME140 0043263c     vcruntime:VCRUNTIME140.dll
 0004:00000650       __IMPORT_DESCRIPTOR_api-ms-win-crt-stdio-l1-1-0 00432650     ucrt:api-ms-win-crt-stdio-l1-1-0.dll
 0004:00000664       __IMPORT_DESCRIPTOR_api-ms-win-crt-runtime-l1-1-0 00432664     ucrt:api-ms-win-crt-runtime-l1-1-0.dll
 0004:00000678       __IMPORT_DESCRIPTOR_api-ms-win-crt-utility-l1-1-0 00432678     ucrt:api-ms-win-crt-utility-l1-1-0.dll
 0004:0000068c       __IMPORT_DESCRIPTOR_api-ms-win-crt-filesystem-l1-1-0 0043268c     ucrt:api-ms-win-crt-filesystem-l1-1-0.dll
 0004:000006a0       __IMPORT_DESCRIPTOR_api-ms-win-crt-string-l1-1-0 004326a0     ucrt:api-ms-win-crt-string-l1-1-0.dll
 0004:000006b4       __IMPORT_DESCRIPTOR_api-ms-win-crt-time-l1-1-0 004326b4     ucrt:api-ms-win-crt-time-l1-1-0.dll
 0004:000006c8       __IMPORT_DESCRIPTOR_api-ms-win-crt-math-l1-1-0 004326c8     ucrt:api-ms-win-crt-math-l1-1-0.dll
 0004:000006dc       __IMPORT_DESCRIPTOR_api-ms-win-crt-locale-l1-1-0 004326dc     ucrt:api-ms-win-crt-locale-l1-1-0.dll
 0004:000006f0       __IMPORT_DESCRIPTOR_api-ms-win-crt-heap-l1-1-0 004326f0     ucrt:api-ms-win-crt-heap-l1-1-0.dll
 0004:00000704       __IMPORT_DESCRIPTOR_KERNEL32 00432704     kernel32:KERNEL32.dll
 0004:00000718       __NULL_IMPORT_DESCRIPTOR   00432718     SDL2:SDL2.dll
 0005:00000000       ___guard_check_icall_fptr  00435000     MSVCRT:guard_support.obj

 entry point at        0001:000001db

 Static symbols

 0001:fffff000       __unwindfunclet$?_Endwrite@?$basic_filebuf@DU?$char_traits@D@std@@@std@@IAE_NXZ$0 00400000 f   HeroObject.obj
 0002:fffd5000       __unwindtable$??$use_facet@V?$codecvt@DDU_Mbstatet@@@std@@@std@@YAABV?$codecvt@DDU_Mbstatet@@@0@ABVlocale@0@@Z 00400000     HeroObject.obj
 0002:fffd5000       __unwindtable$??$?0PADX@?$basic_string@DU?$char_traits@D@std@@V?$allocator@D@2@@std@@QAE@PAD0ABV?$allocator@D@1@@Z 00400000     StatsBar.obj
 0002:fffd5000       __unwindtable$?_Endwrite@?$basic_filebuf@DU?$char_traits@D@std@@@std@@IAE_NXZ 00400000     HeroObject.obj
 0002:fffd5000       __unwindtable$??$?0PADX@?$basic_string@DU?$char_traits@D@std@@V?$allocator@D@2@@std@@QAE@PAD0ABV?$allocator@D@1@@Z 00400000     PsyagceEngine.obj
 0002:fffd5000       __ehfuncinfo$?_Equal@?$basic_string@DU?$char_traits@D@std@@V?$allocator@D@2@@std@@QBE_NQBD@Z 00400000     StatsBar.obj
 0002:fffd5000       __unwindtable$?uflow@?$basic_filebuf@DU?$char_traits@D@std@@@std@@MAEHXZ 00400000     HeroObject.obj
 0002:fffd5000       __ehfuncinfo$??1?$basic_string@DU?$char_traits@D@std@@V?$allocator@D@2@@std@@QAE@XZ 00400000     StatsBar.obj
 0002:fffd5000       __unwindtable$?overflow@?$basic_filebuf@DU?$char_traits@D@std@@@std@@MAEHH@Z 00400000     HeroObject.obj
 0002:fffd5000       __ehfuncinfo$?_Assign_rv_contents_with_alloc_always_equal@?$basic_string@DU?$char_traits@D@std@@V?$allocator@D@2@@std@@QAEX$$QAV12@U?$integral_constant@_N$00@2@@Z 00400000     StatsBar.obj
 0002:fffd5000       __unwindtable$?open@?$basic_filebuf@DU?$char_traits@D@std@@@std@@QAEPAV12@PBDHH@Z 00400000     HeroObject.obj
 0002:fffd5000       __ehfuncinfo$??4?$basic_string@DU?$char_traits@D@std@@V?$allocator@D@2@@std@@QAEAAV01@$$QAV01@@Z 00400000     StatsBar.obj
 0002:fffd5000       __ehfuncinfo$??1?$basic_filebuf@DU?$char_traits@D@std@@@std@@UAE@XZ 00400000     HeroObject.obj
 0002:fffd5000       __unwindtable$??$use_facet@V?$codecvt@DDU_Mbstatet@@@std@@@std@@YAABV?$codecvt@DDU_Mbstatet@@@0@ABVlocale@0@@Z 00400000     PsyagceEngine.obj
 0002:fffd5000       __unwindtable$??0?$basic_filebuf@DU?$char_traits@D@std@@@std@@QAE@PAU_iobuf@@@Z 00400000     HeroObject.obj
 0002:fffd5000       __ehfuncinfo$??0?$basic_string@DU?$char_traits@D@std@@V?$allocator@D@2@@std@@QAE@$$QAV01@@Z 00400000     StatsBar.obj
 0002:fffd5000       __unwindtable$??0?$basic_ifstream@DU?$char_traits@D@std@@@std@@QAE@PBDHH@Z 00400000     HeroObject.obj
 0002:fffd5000       __ehfuncinfo$??0?$basic_string@DU?$char_traits@D@std@@V?$allocator@D@2@@std@@QAE@XZ 00400000     StatsBar.obj
 0001:fffff000       __unwindfunclet$??$?0PADX@?$basic_string@DU?$char_traits@D@std@@V?$allocator@D@2@@std@@QAE@PAD0ABV?$allocator@D@1@@Z$0 00400000 f   StatsBar.obj
 0001:fffff000       __ehhandler$?_Equal@?$basic_string@DU?$char_traits@D@std@@V?$allocator@D@2@@std@@QBE_NQBD@Z 00400000 f   StatsBar.obj
 0001:fffff000       __ehhandler$?c_str@?$basic_string@DU?$char_traits@D@std@@V?$allocator@D@2@@std@@QBEPBDXZ 00400000 f   StatsBar.obj
 0001:fffff000       __ehhandler$??1?$basic_string@DU?$char_traits@D@std@@V?$allocator@D@2@@std@@QAE@XZ 00400000 f   StatsBar.obj
 0001:fffff000       __ehhandler$?_Assign_rv_contents_with_alloc_always_equal@?$basic_string@DU?$char_traits@D@std@@V?$allocator@D@2@@std@@QAEX$$QAV12@U?$integral_constant@_N$00@2@@Z 00400000 f   StatsBar.obj
 0002:fffd5000       __ehfuncinfo$??1locale@std@@QAE@XZ 00400000     HeroObject.obj
 0002:fffd5000       __ehfuncinfo$?begin@?$basic_string@DU?$char_traits@D@std@@V?$allocator@D@2@@std@@QAE?AV?$_String_iterator@V?$_String_val@U?$_Simple_types@D@std@@@std@@@2@XZ 00400000     HeroObject.obj
 0002:fffd5000       __ehfuncinfo$??1?$basic_string@DU?$char_traits@D@std@@V?$allocator@D@2@@std@@QAE@XZ 00400000     HeroObject.obj
 0002:fffd5000       __unwindtable$??0?$basic_string@DU?$char_traits@D@std@@V?$allocator@D@2@@std@@QAE@ID@Z 00400000     HeroObject.obj
 0001:fffff000       __ehhandler$??4?$basic_string@DU?$char_traits@D@std@@V?$allocator@D@2@@std@@QAEAAV01@$$QAV01@@Z 00400000 f   StatsBar.obj
 0002:fffd5000       __unwindtable$??0?$basic_string@DU?$char_traits@D@std@@V?$allocator@D@2@@std@@QAE@QBD@Z 00400000     HeroObject.obj
 0001:fffff000       __ehhandler$??0?$basic_string@DU?$char_traits@D@std@@V?$allocator@D@2@@std@@QAE@$$QAV01@@Z 00400000 f   StatsBar.obj
 0002:fffd5000       __ehfuncinfo$??0?$basic_string@DU?$char_traits@D@std@@V?$allocator@D@2@@std@@QAE@XZ 00400000     HeroObject.obj
 0002:fffd5000       __unwindtable$?_Endwrite@?$basic_filebuf@DU?$char_traits@D@std@@@std@@IAE_NXZ 00400000     PsyagceEngine.obj
 0001:fffff000       __unwindfunclet$??$use_facet@V?$codecvt@DDU_Mbstatet@@@std@@@std@@YAABV?$codecvt@DDU_Mbstatet@@@0@ABVlocale@0@@Z$0 00400000 f   HeroObject.obj
 0002:fffd5000       __unwindtable$?uflow@?$basic_filebuf@DU?$char_traits@D@std@@@std@@MAEHXZ 00400000     PsyagceEngine.obj
 0001:fffff000       __ehhandler$??0?$basic_string@DU?$char_traits@D@std@@V?$allocator@D@2@@std@@QAE@XZ 00400000 f   StatsBar.obj
 0002:fffd5000       __unwindtable$?overflow@?$basic_filebuf@DU?$char_traits@D@std@@@std@@MAEHH@Z 00400000     PsyagceEngine.obj
 0002:fffd5000       __ehfuncinfo$??1?$basic_string@DU?$char_traits@D@std@@V?$allocator@D@2@@std@@QAE@XZ 00400000     Equipment.obj
 0002:fffd5000       __unwindtable$?open@?$basic_filebuf@DU?$char_traits@D@std@@@std@@QAEPAV12@PBDHH@Z 00400000     PsyagceEngine.obj
 0001:fffff000       __unwindfunclet$?uflow@?$basic_filebuf@DU?$char_traits@D@std@@@std@@MAEHXZ$0 00400000 f   HeroObject.obj
 0002:fffd5000       __ehfuncinfo$??1?$basic_filebuf@DU?$char_traits@D@std@@@std@@UAE@XZ 00400000     PsyagceEngine.obj
 0002:fffd5000       __unwindtable$??0?$basic_filebuf@DU?$char_traits@D@std@@@std@@QAE@PAU_iobuf@@@Z 00400000     PsyagceEngine.obj
 0002:fffd5000       __ehfuncinfo$??1?$basic_string@DU?$char_traits@D@std@@V?$allocator@D@2@@std@@QAE@XZ 00400000     SpriteObject.obj
 0002:fffd5000       __unwindtable$??0?$basic_ifstream@DU?$char_traits@D@std@@@std@@QAE@PBDHH@Z 00400000     PsyagceEngine.obj
 0001:fffff000       __unwindfunclet$?overflow@?$basic_filebuf@DU?$char_traits@D@std@@@std@@MAEHH@Z$0 00400000 f   HeroObject.obj
 0002:fffd5000       __ehfuncinfo$??0?$basic_string@DU?$char_traits@D@std@@V?$allocator@D@2@@std@@QAE@XZ 00400000     SpriteObject.obj
 0001:fffff000       __unwindfunclet$?open@?$basic_filebuf@DU?$char_traits@D@std@@@std@@QAEPAV12@PBDHH@Z$0 00400000 f   HeroObject.obj
 0002:fffd5000       __ehfuncinfo$??0?$basic_string@DU?$char_traits@D@std@@V?$allocator@D@2@@std@@QAE@XZ 00400000     Equipment.obj
 0001:fffff000       __ehhandler$??1?$basic_filebuf@DU?$char_traits@D@std@@@std@@UAE@XZ 00400000 f   HeroObject.obj
 0001:fffff000       __unwindfunclet$??0?$basic_filebuf@DU?$char_traits@D@std@@@std@@QAE@PAU_iobuf@@@Z$0 00400000 f   HeroObject.obj
 0001:fffff000       __ehhandler$??1?$basic_string@DU?$char_traits@D@std@@V?$allocator@D@2@@std@@QAE@XZ 00400000 f   Equipment.obj
 0001:fffff000       __ehhandler$??0?$basic_string@DU?$char_traits@D@std@@V?$allocator@D@2@@std@@QAE@XZ 00400000 f   Equipment.obj
 0000:fffc9000       .debug$S                   00400000     SDL2:SDL2.dll
 0001:fffff000       __unwindfunclet$??0?$basic_ifstream@DU?$char_traits@D@std@@@std@@QAE@PBDHH@Z$0 00400000 f   HeroObject.obj
 0000:fffc9000       .debug$S                   00400000     SDL2:SDL2.dll
 0000:fffc9000       .debug$S                   00400000     SDL2:SDL2.dll
 0000:fffc9000       .debug$S                   00400000     SDL2:SDL2.dll
 0001:fffff000       __ehhandler$??1?$basic_string@DU?$char_traits@D@std@@V?$allocator@D@2@@std@@QAE@XZ 00400000 f   SpriteObject.obj
 0001:fffff000       __ehhandler$??0?$basic_string@DU?$char_traits@D@std@@V?$allocator@D@2@@std@@QAE@XZ 00400000 f   SpriteObject.obj
 0002:fffd5000       __ehfuncinfo$??1sentry@?$basic_ostream@DU?$char_traits@D@std@@@std@@QAE@XZ 00400000     PsyagceTileManager.obj
 0002:fffd5000       __unwindtable$??0sentry@?$basic_ostream@DU?$char_traits@D@std@@@std@@QAE@AAV12@@Z 00400000     PsyagceTileManager.obj
 0000:fffc9000       .debug$S                   00400000     SDL2:SDL2.dll
 0002:fffd5000       __ehfuncinfo$??1locale@std@@QAE@XZ 00400000     PsyagceEngine.obj
 0002:fffd5000       __ehfuncinfo$??1_Sentry_base@?$basic_ostream@DU?$char_traits@D@std@@@std@@QAE@XZ 00400000     PsyagceTileManager.obj
 0002:fffd5000       __ehfuncinfo$?c_str@?$basic_string@DU?$char_traits@D@std@@V?$allocator@D@2@@std@@QBEPBDXZ 00400000     PsyagceEngine.obj
 0002:fffd5000       __ehfuncinfo$?begin@?$basic_string@DU?$char_traits@D@std@@V?$allocator@D@2@@std@@QAE?AV?$_String_iterator@V?$_String_val@U?$_Simple_types@D@std@@@std@@@2@XZ 00400000     PsyagceEngine.obj
 0002:fffd5000       __ehfuncinfo$??1?$basic_string@DU?$char_traits@D@std@@V?$allocator@D@2@@std@@QAE@XZ 00400000     PsyagceEngine.obj
 0002:fffd5000       __ehfuncinfo$?_Assign_rv_contents_with_alloc_always_equal@?$basic_string@DU?$char_traits@D@std@@V?$allocator@D@2@@std@@QAEX$$QAV12@U?$integral_constant@_N$00@2@@Z 00400000     PsyagceEngine.obj
 0002:fffd5000       __ehfuncinfo$??4?$basic_string@DU?$char_traits@D@std@@V?$allocator@D@2@@std@@QAEAAV01@$$QAV01@@Z 00400000     PsyagceEngine.obj
 0002:fffd5000       __ehfuncinfo$??0?$basic_string@DU?$char_traits@D@std@@V?$allocator@D@2@@std@@QAE@$$QAV01@@Z 00400000     PsyagceEngine.obj
 0002:fffd5000       __unwindtable$??0?$basic_string@DU?$char_traits@D@std@@V?$allocator@D@2@@std@@QAE@ID@Z 00400000     PsyagceEngine.obj
 0002:fffd5000       __catchsym$??$?6U?$char_traits@D@std@@@std@@YAAAV?$basic_ostream@DU?$char_traits@D@std@@@0@AAV10@PBD@Z$3 00400000     PsyagceTileManager.obj
 0002:fffd5000       __ehfuncinfo$??0?$basic_string@DU?$char_traits@D@std@@V?$allocator@D@2@@std@@QAE@XZ 00400000     PsyagceEngine.obj
 0000:fffc9000       .debug$S                   00400000     SDL2:SDL2.dll
 0000:fffc9000       .debug$S                   00400000     SDL2:SDL2.dll
 0000:fffc9000       .debug$S                   00400000     SDL2:SDL2.dll
 0001:fffff000       __unwindfunclet$??$?0PADX@?$basic_string@DU?$char_traits@D@std@@V?$allocator@D@2@@std@@QAE@PAD0ABV?$allocator@D@1@@Z$0 00400000 f   PsyagceEngine.obj
 0000:fffc9000       .debug$S                   00400000     kernel32:KERNEL32.dll
 0000:fffc9000       .debug$S                   00400000     kernel32:KERNEL32.dll
 0000:fffc9000       .debug$S                   00400000     kernel32:KERNEL32.dll
 0001:fffff000       __ehhandler$??1sentry@?$basic_ostream@DU?$char_traits@D@std@@@std@@QAE@XZ 00400000 f   PsyagceTileManager.obj
 0001:fffff000       __unwindfunclet$??0sentry@?$basic_ostream@DU?$char_traits@D@std@@@std@@QAE@AAV12@@Z$0 00400000 f   PsyagceTileManager.obj
 0000:fffc9000       .debug$S                   00400000     kernel32:KERNEL32.dll
 0001:fffff000       __ehhandler$??1_Sentry_base@?$basic_ostream@DU?$char_traits@D@std@@@std@@QAE@XZ 00400000 f   PsyagceTileManager.obj
 0001:fffff000       __unwindfunclet$??$?6U?$char_traits@D@std@@@std@@YAAAV?$basic_ostream@DU?$char_traits@D@std@@@0@AAV10@PBD@Z$2 00400000 f   PsyagceTileManager.obj
 0001:fffff000       __unwindfunclet$??$use_facet@V?$codecvt@DDU_Mbstatet@@@std@@@std@@YAABV?$codecvt@DDU_Mbstatet@@@0@ABVlocale@0@@Z$0 00400000 f   PsyagceEngine.obj
 0000:fffc9000       .debug$S                   00400000     kernel32:KERNEL32.dll
 0000:fffc9000       .debug$S                   00400000     kernel32:KERNEL32.dll
 0000:fffc9000       .debug$S                   00400000     kernel32:KERNEL32.dll
 0000:fffc9000       .debug$S                   00400000     kernel32:KERNEL32.dll
 0000:fffc9000       .debug$S                   00400000     kernel32:KERNEL32.dll
 0000:fffc9000       .debug$S                   00400000     kernel32:KERNEL32.dll
 0000:fffc9000       .debug$S                   00400000     kernel32:KERNEL32.dll
 0001:fffff000       __ehhandler$??1locale@std@@QAE@XZ 00400000 f   HeroObject.obj
 0001:fffff000       __ehhandler$?begin@?$basic_string@DU?$char_traits@D@std@@V?$allocator@D@2@@std@@QAE?AV?$_String_iterator@V?$_String_val@U?$_Simple_types@D@std@@@std@@@2@XZ 00400000 f   HeroObject.obj
 0001:fffff000       __ehhandler$??1?$basic_string@DU?$char_traits@D@std@@V?$allocator@D@2@@std@@QAE@XZ 00400000 f   HeroObject.obj
 0001:fffff000       __unwindfunclet$??0?$basic_string@DU?$char_traits@D@std@@V?$allocator@D@2@@std@@QAE@ID@Z$0 00400000 f   HeroObject.obj
 0000:fffc9000       .debug$S                   00400000     kernel32:KERNEL32.dll
 0001:fffff000       __unwindfunclet$??0?$basic_string@DU?$char_traits@D@std@@V?$allocator@D@2@@std@@QAE@QBD@Z$0 00400000 f   HeroObject.obj
 0000:fffc9000       .debug$S                   00400000     SDL2:SDL2.dll
 0001:fffff000       __ehhandler$??0?$basic_string@DU?$char_traits@D@std@@V?$allocator@D@2@@std@@QAE@XZ 00400000 f   HeroObject.obj
 0000:fffc9000       .debug$S                   00400000     SDL2:SDL2.dll
 0001:fffff000       __unwindfunclet$?_Endwrite@?$basic_filebuf@DU?$char_traits@D@std@@@std@@IAE_NXZ$0 00400000 f   PsyagceEngine.obj
 0000:fffc9000       .debug$S                   00400000     SDL2:SDL2.dll
 0001:fffff000       __unwindfunclet$?uflow@?$basic_filebuf@DU?$char_traits@D@std@@@std@@MAEHXZ$0 00400000 f   PsyagceEngine.obj
 0000:fffc9000       .debug$S                   00400000     SDL2:SDL2.dll
 0001:fffff000       __unwindfunclet$?overflow@?$basic_filebuf@DU?$char_traits@D@std@@@std@@MAEHH@Z$0 00400000 f   PsyagceEngine.obj
 0000:fffc9000       .debug$S                   00400000     SDL2:SDL2.dll
 0001:fffff000       __unwindfunclet$?open@?$basic_filebuf@DU?$char_traits@D@std@@@std@@QAEPAV12@PBDHH@Z$0 00400000 f   PsyagceEngine.obj
 0000:fffc9000       .debug$S                   00400000     SDL2:SDL2.dll
 0001:fffff000       __ehhandler$??1?$basic_filebuf@DU?$char_traits@D@std@@@std@@UAE@XZ 00400000 f   PsyagceEngine.obj
 0001:fffff000       __unwindfunclet$??0?$basic_filebuf@DU?$char_traits@D@std@@@std@@QAE@PAU_iobuf@@@Z$0 00400000 f   PsyagceEngine.obj
 0000:fffc9000       .debug$S                   00400000     SDL2:SDL2.dll
 0000:fffc9000       .debug$S                   00400000     SDL2:SDL2.dll
 0000:fffc9000       .debug$S                   00400000     SDL2:SDL2.dll
 0001:fffff000       __unwindfunclet$??0?$basic_ifstream@DU?$char_traits@D@std@@@std@@QAE@PBDHH@Z$0 00400000 f   PsyagceEngine.obj
 0000:fffc9000       .debug$S                   00400000     SDL2:SDL2.dll
 0000:fffc9000       .debug$S                   00400000     SDL2:SDL2.dll
 0000:fffc9000       .debug$S                   00400000     SDL2:SDL2.dll
 0000:fffc9000       .debug$S                   00400000     SDL2:SDL2.dll
 0000:fffc9000       .debug$S                   00400000     SDL2:SDL2.dll
 0000:fffc9000       .debug$S                   00400000     SDL2:SDL2.dll
 0000:fffc9000       .debug$S                   00400000     kernel32:KERNEL32.dll
 0000:fffc9000       .debug$S                   00400000     SDL2:SDL2.dll
 0000:fffc9000       .debug$S                   00400000     SDL2:SDL2.dll
 0000:fffc9000       .debug$S                   00400000     SDL2_image:SDL2_image.dll
 0000:fffc9000       .debug$S                   00400000     SDL2_ttf:SDL2_ttf.dll
 0000:fffc9000       .debug$S                   00400000     SDL2_ttf:SDL2_ttf.dll
 0000:fffc9000       .debug$S                   00400000     SDL2_ttf:SDL2_ttf.dll
 0000:fffc9000       .debug$S                   00400000     SDL2_ttf:SDL2_ttf.dll
 0000:fffc9000       .debug$S                   00400000     kernel32:KERNEL32.dll
 0000:fffc9000       .debug$S                   00400000     SDL2_ttf:SDL2_ttf.dll
 0000:fffc9000       .debug$S                   00400000     msvcprt:MSVCP140.dll
 0000:fffc9000       .debug$S                   00400000     msvcprt:MSVCP140.dll
 0000:fffc9000       .debug$S                   00400000     msvcprt:MSVCP140.dll
 0002:fffd5000       __ehfuncinfo$?c_str@?$basic_string@DU?$char_traits@D@std@@V?$allocator@D@2@@std@@QBEPBDXZ 00400000     StatsBar.obj
 0000:fffc9000       .debug$S                   00400000     ucrt:api-ms-win-crt-stdio-l1-1-0.dll
 0000:fffc9000       .debug$S                   00400000     msvcprt:MSVCP140.dll
 0000:fffc9000       .debug$S                   00400000     ucrt:api-ms-win-crt-utility-l1-1-0.dll
 0000:fffc9000       .debug$S                   00400000     ucrt:api-ms-win-crt-stdio-l1-1-0.dll
 0000:fffc9000       .debug$S                   00400000     ucrt:api-ms-win-crt-string-l1-1-0.dll
 0000:fffc9000       .debug$S                   00400000     ucrt:api-ms-win-crt-filesystem-l1-1-0.dll
 0000:fffc9000       .debug$S                   00400000     ucrt:api-ms-win-crt-filesystem-l1-1-0.dll
 0000:fffc9000       .debug$S                   00400000     ucrt:api-ms-win-crt-stdio-l1-1-0.dll
 0000:fffc9000       .debug$S                   00400000     ucrt:api-ms-win-crt-stdio-l1-1-0.dll
 0000:fffc9000       .debug$S                   00400000     ucrt:api-ms-win-crt-stdio-l1-1-0.dll
 0000:fffc9000       .debug$S                   00400000     ucrt:api-ms-win-crt-stdio-l1-1-0.dll
 0000:fffc9000       .debug$S                   00400000     ucrt:api-ms-win-crt-stdio-l1-1-0.dll
 0000:fffc9000       .debug$S                   00400000     ucrt:api-ms-win-crt-stdio-l1-1-0.dll
 0000:fffc9000       .debug$S                   00400000     ucrt:api-ms-win-crt-stdio-l1-1-0.dll
 0000:fffc9000       .debug$S                   00400000     ucrt:api-ms-win-crt-stdio-l1-1-0.dll
 0000:fffc9000       .debug$S                   00400000     ucrt:api-ms-win-crt-time-l1-1-0.dll
 0000:fffc9000       .debug$S                   00400000     ucrt:api-ms-win-crt-math-l1-1-0.dll
 0000:fffc9000       .debug$S                   00400000     ucrt:api-ms-win-crt-math-l1-1-0.dll
 0000:fffc9000       .debug$S                   00400000     ucrt:api-ms-win-crt-math-l1-1-0.dll
 0000:fffc9000       .debug$S                   00400000     ucrt:api-ms-win-crt-string-l1-1-0.dll
 0000:fffc9000       .debug$S                   00400000     ucrt:api-ms-win-crt-string-l1-1-0.dll
 0000:fffc9000       .debug$S                   00400000     ucrt:api-ms-win-crt-runtime-l1-1-0.dll
 0000:fffc9000       .debug$S                   00400000     ucrt:api-ms-win-crt-utility-l1-1-0.dll
 0000:fffc9000       .debug$S                   00400000     ucrt:api-ms-win-crt-runtime-l1-1-0.dll
 0000:fffc9000       .debug$S                   00400000     ucrt:api-ms-win-crt-runtime-l1-1-0.dll
 0000:fffc9000       .debug$S                   00400000     ucrt:api-ms-win-crt-runtime-l1-1-0.dll
 0000:fffc9000       .debug$S                   00400000     ucrt:api-ms-win-crt-math-l1-1-0.dll
 0000:fffc9000       .debug$S                   00400000     ucrt:api-ms-win-crt-runtime-l1-1-0.dll
 0000:fffc9000       .debug$S                   00400000     ucrt:api-ms-win-crt-runtime-l1-1-0.dll
 0000:fffc9000       .debug$S                   00400000     ucrt:api-ms-win-crt-runtime-l1-1-0.dll
 0000:fffc9000       .debug$S                   00400000     ucrt:api-ms-win-crt-stdio-l1-1-0.dll
 0000:fffc9000       .debug$S                   00400000     ucrt:api-ms-win-crt-stdio-l1-1-0.dll
 0001:fffff000       __ehhandler$??1locale@std@@QAE@XZ 00400000 f   PsyagceEngine.obj
 0000:fffc9000       .debug$S                   00400000     ucrt:api-ms-win-crt-utility-l1-1-0.dll
 0001:fffff000       __ehhandler$?c_str@?$basic_string@DU?$char_traits@D@std@@V?$allocator@D@2@@std@@QBEPBDXZ 00400000 f   PsyagceEngine.obj
 0001:fffff000       __ehhandler$?begin@?$basic_string@DU?$char_traits@D@std@@V?$allocator@D@2@@std@@QAE?AV?$_String_iterator@V?$_String_val@U?$_Simple_types@D@std@@@std@@@2@XZ 00400000 f   PsyagceEngine.obj
 0001:fffff000       __ehhandler$??1?$basic_string@DU?$char_traits@D@std@@V?$allocator@D@2@@std@@QAE@XZ 00400000 f   PsyagceEngine.obj
 0001:fffff000       __ehhandler$?_Assign_rv_contents_with_alloc_always_equal@?$basic_string@DU?$char_traits@D@std@@V?$allocator@D@2@@std@@QAEX$$QAV12@U?$integral_constant@_N$00@2@@Z 00400000 f   PsyagceEngine.obj
 0001:fffff000       __ehhandler$??4?$basic_string@DU?$char_traits@D@std@@V?$allocator@D@2@@std@@QAEAAV01@$$QAV01@@Z 00400000 f   PsyagceEngine.obj
 0001:fffff000       __ehhandler$??0?$basic_string@DU?$char_traits@D@std@@V?$allocator@D@2@@std@@QAE@$$QAV01@@Z 00400000 f   PsyagceEngine.obj
 0001:fffff000       __unwindfunclet$??0?$basic_string@DU?$char_traits@D@std@@V?$allocator@D@2@@std@@QAE@ID@Z$0 00400000 f   PsyagceEngine.obj
 0000:fffc9000       .debug$S                   00400000     ucrt:api-ms-win-crt-runtime-l1-1-0.dll
 0001:fffff000       __ehhandler$??0?$basic_string@DU?$char_traits@D@std@@V?$allocator@D@2@@std@@QAE@XZ 00400000 f   PsyagceEngine.obj
 0000:fffc9000       .debug$S                   00400000     ucrt:api-ms-win-crt-runtime-l1-1-0.dll
 0000:fffc9000       .debug$S                   00400000     ucrt:api-ms-win-crt-runtime-l1-1-0.dll
 0000:fffc9000       .debug$S                   00400000     ucrt:api-ms-win-crt-stdio-l1-1-0.dll
 0000:fffc9000       .debug$S                   00400000     ucrt:api-ms-win-crt-stdio-l1-1-0.dll
 0000:fffc9000       .debug$S                   00400000     vcruntime:VCRUNTIME140.dll
 0000:fffc9000       .debug$S                   00400000     vcruntime:VCRUNTIME140.dll
 0000:fffc9000       .debug$S                   00400000     vcruntime:VCRUNTIME140.dll
 0000:fffc9000       .debug$S                   00400000     vcruntime:VCRUNTIME140.dll
 0000:fffc9000       .debug$S                   00400000     vcruntime:VCRUNTIME140.dll
 0000:fffc9000       .debug$S                   00400000     vcruntime:VCRUNTIME140.dll
 0000:fffc9000       .debug$S                   00400000     vcruntime:VCRUNTIME140.dll
 0000:fffc9000       .debug$S                   00400000     vcruntime:VCRUNTIME140.dll
 0000:fffc9000       .debug$S                   00400000     vcruntime:VCRUNTIME140.dll
 0000:fffc9000       .debug$S                   00400000     vcruntime:VCRUNTIME140.dll
 0000:fffc9000       .debug$S                   00400000     ucrt:api-ms-win-crt-runtime-l1-1-0.dll
 0000:fffcb000       __guard_fids___guard_icall_checks_enforced 00400000     MSVCRT:guard_support.obj
 0000:fffcb000       __guard_fids__             00400000     MSVCRT:guard_support.obj
 0000:fffcb000       __guard_fids__             00400000     MSVCRT:throw_bad_alloc.obj
 0000:fffcb000       __guard_fids__             00400000     MSVCRT:throw_bad_alloc.obj
 0000:fffcb000       __guard_fids__             00400000     MSVCRT:throw_bad_alloc.obj
 0000:fffcb000       __guard_fids__             00400000     MSVCRT:throw_bad_alloc.obj
 0000:fffcb000       __guard_fids__             00400000     MSVCRT:throw_bad_alloc.obj
 0000:fffcb000       __guard_fids__             00400000     MSVCRT:throw_bad_alloc.obj
 0000:fffcb000       __guard_fids__             00400000     MSVCRT:throw_bad_alloc.obj
 0000:fffcb000       __guard_fids__             00400000     MSVCRT:throw_bad_alloc.obj
 0000:fffcb000       __guard_fids___except_handler4 00400000     MSVCRT:_chandler4gs_.obj
 0000:fffcb000       __guard_fids____scrt_set_unhandled_exception_filter 00400000     MSVCRT:utility_desktop.obj
 0000:fffcb000       __guard_fids__             00400000     MSVCRT:std_type_info_static.obj
 0000:fffcb000       __guard_fids_?pre_c_initialization@@YAHXZ 00400000     MSVCRT:exe_main.obj
 0000:fffcb000       __guard_fids__             00400000     MSVCRT:exe_main.obj
 0000:fffc9000       .debug$S                   00400000     msvcprt:MSVCP140.dll
 0000:fffc9000       .debug$S                   00400000     msvcprt:MSVCP140.dll
 0000:fffc9000       .debug$S                   00400000     msvcprt:MSVCP140.dll
 0000:fffc9000       .debug$S                   00400000     msvcprt:MSVCP140.dll
 0000:fffc9000       .debug$S                   00400000     msvcprt:MSVCP140.dll
 0000:fffc9000       .debug$S                   00400000     msvcprt:MSVCP140.dll
 0000:fffc9000       .debug$S                   00400000     msvcprt:MSVCP140.dll
 0000:fffc9000       .debug$S                   00400000     msvcprt:MSVCP140.dll
 0000:fffc9000       .debug$S                   00400000     msvcprt:MSVCP140.dll
 0000:fffc9000       .debug$S                   00400000     msvcprt:MSVCP140.dll
 0000:fffc9000       .debug$S                   00400000     msvcprt:MSVCP140.dll
 0000:fffc9000       .debug$S                   00400000     msvcprt:MSVCP140.dll
 0000:fffc9000       .debug$S                   00400000     msvcprt:MSVCP140.dll
 0000:fffc9000       .debug$S                   00400000     msvcprt:MSVCP140.dll
 0000:fffc9000       .debug$S                   00400000     msvcprt:MSVCP140.dll
 0000:fffc9000       .debug$S                   00400000     msvcprt:MSVCP140.dll
 0000:fffc9000       .debug$S                   00400000     ucrt:api-ms-win-crt-runtime-l1-1-0.dll
 0000:fffc9000       .debug$S                   00400000     ucrt:api-ms-win-crt-runtime-l1-1-0.dll
 0000:fffc9000       .debug$S                   00400000     ucrt:api-ms-win-crt-stdio-l1-1-0.dll
 0000:fffc9000       .debug$S                   00400000     ucrt:api-ms-win-crt-runtime-l1-1-0.dll
 0000:fffc9000       .debug$S                   00400000     ucrt:api-ms-win-crt-runtime-l1-1-0.dll
 0000:fffc9000       .debug$S                   00400000     ucrt:api-ms-win-crt-runtime-l1-1-0.dll
 0000:fffc9000       .debug$S                   00400000     ucrt:api-ms-win-crt-runtime-l1-1-0.dll
 0000:fffc9000       .debug$S                   00400000     ucrt:api-ms-win-crt-runtime-l1-1-0.dll
 0000:fffc9000       .debug$S                   00400000     ucrt:api-ms-win-crt-locale-l1-1-0.dll
 0000:fffc9000       .debug$S                   00400000     msvcprt:MSVCP140.dll
 0000:fffc9000       .debug$S                   00400000     ucrt:api-ms-win-crt-heap-l1-1-0.dll
 0000:fffc9000       .debug$S                   00400000     msvcprt:MSVCP140.dll
 0000:fffc9000       .debug$S                   00400000     msvcprt:MSVCP140.dll
 0000:fffc9000       .debug$S                   00400000     msvcprt:MSVCP140.dll
 0000:fffc9000       .debug$S                   00400000     msvcprt:MSVCP140.dll
 0000:fffc9000       .debug$S                   00400000     msvcprt:MSVCP140.dll
 0000:fffc9000       .debug$S                   00400000     msvcprt:MSVCP140.dll
 0000:fffc9000       .debug$S                   00400000     msvcprt:MSVCP140.dll
 0000:fffc9000       .debug$S                   00400000     msvcprt:MSVCP140.dll
 0000:fffc9000       .debug$S                   00400000     ucrt:api-ms-win-crt-stdio-l1-1-0.dll
 0000:fffc9000       .debug$S                   00400000     msvcprt:MSVCP140.dll
 0000:fffc9000       .debug$S                   00400000     msvcprt:MSVCP140.dll
 0000:fffc9000       .debug$S                   00400000     msvcprt:MSVCP140.dll
 0000:fffc9000       .debug$S                   00400000     ucrt:api-ms-win-crt-heap-l1-1-0.dll
 0000:fffc9000       .debug$S                   00400000     ucrt:api-ms-win-crt-heap-l1-1-0.dll
 0000:fffc9000       .debug$S                   00400000     msvcprt:MSVCP140.dll
 0000:fffc9000       .debug$S                   00400000     msvcprt:MSVCP140.dll
 0000:fffc9000       .debug$S                   00400000     msvcprt:MSVCP140.dll
 0000:fffc9000       .debug$S                   00400000     msvcprt:MSVCP140.dll
 0000:fffc9000       .debug$S                   00400000     msvcprt:MSVCP140.dll
 0000:fffc9000       .debug$S                   00400000     msvcprt:MSVCP140.dll
 0000:fffc9000       .debug$S                   00400000     ucrt:api-ms-win-crt-runtime-l1-1-0.dll
 0000:fffc9000       .debug$S                   00400000     msvcprt:MSVCP140.dll
 0000:fffc9000       .debug$S                   00400000     ucrt:api-ms-win-crt-runtime-l1-1-0.dll
 0000:fffc9000       .debug$S                   00400000     msvcprt:MSVCP140.dll
 0000:fffc9000       .debug$S                   00400000     ucrt:api-ms-win-crt-runtime-l1-1-0.dll
 0000:fffc9000       .debug$S                   00400000     msvcprt:MSVCP140.dll
 0000:fffc9000       .debug$S                   00400000     msvcprt:MSVCP140.dll
 0000:fffc9000       .debug$S                   00400000     msvcprt:MSVCP140.dll
 0000:fffc9000       .debug$S                   00400000     msvcprt:MSVCP140.dll
 0000:fffc9000       .debug$S                   00400000     msvcprt:MSVCP140.dll
 0000:fffc9000       .debug$S                   00400000     msvcprt:MSVCP140.dll
 0000:fffc9000       .debug$S                   00400000     msvcprt:MSVCP140.dll
 0000:fffc9000       .debug$S                   00400000     msvcprt:MSVCP140.dll
 0000:fffc9000       .debug$S                   00400000     msvcprt:MSVCP140.dll
 0000:fffc9000       .debug$S                   00400000     msvcprt:MSVCP140.dll
 0000:fffc9000       .debug$S                   00400000     msvcprt:MSVCP140.dll
 0000:fffc9000       .debug$S                   00400000     msvcprt:MSVCP140.dll
 0000:fffc9000       .debug$S                   00400000     msvcprt:MSVCP140.dll
 0000:fffc9000       .debug$S                   00400000     msvcprt:MSVCP140.dll
 0000:fffc9000       .debug$S                   00400000     msvcprt:MSVCP140.dll
 0000:fffc9000       .debug$S                   00400000     msvcprt:MSVCP140.dll
 0000:fffc9000       .debug$S                   00400000     msvcprt:MSVCP140.dll
 0000:fffc9000       .debug$S                   00400000     ucrt:api-ms-win-crt-runtime-l1-1-0.dll
 0000:fffc9000       .debug$S                   00400000     ucrt:api-ms-win-crt-runtime-l1-1-0.dll
 0000:fffc9000       .debug$S                   00400000     ucrt:api-ms-win-crt-runtime-l1-1-0.dll
 0000:fffc9000       .debug$S                   00400000     ucrt:api-ms-win-crt-runtime-l1-1-0.dll
 0000:fffc9000       .debug$S                   00400000     ucrt:api-ms-win-crt-runtime-l1-1-0.dll
 0000:fffc9000       .debug$S                   00400000     ucrt:api-ms-win-crt-heap-l1-1-0.dll
 0000:fffc9000       .debug$S                   00400000     msvcprt:MSVCP140.dll
 0000:fffc9000       .debug$S                   00400000     msvcprt:MSVCP140.dll
 0000:fffc9000       .debug$S                   00400000     msvcprt:MSVCP140.dll
 0000:fffc9000       .debug$S                   00400000     msvcprt:MSVCP140.dll
 0000:fffc9000       .debug$S                   00400000     msvcprt:MSVCP140.dll
 0000:fffc9000       .debug$S                   00400000     msvcprt:MSVCP140.dll
 0000:fffc9000       .debug$S                   00400000     msvcprt:MSVCP140.dll
 0000:fffc9000       .debug$S                   00400000     msvcprt:MSVCP140.dll
 0000:fffc9000       .debug$S                   00400000     msvcprt:MSVCP140.dll
 0000:fffcb000       __guard_fids__             00400000     msvcprt:locale0_implib.obj
 0000:fffcb000       __guard_fids_??__E_Fac_tidy_reg@std@@YAXXZ 00400000     msvcprt:locale0_implib.obj
 0000:fffc9000       .debug$S                   00400000     msvcprt:MSVCP140.dll
 0000:fffc9000       .debug$S                   00400000     msvcprt:MSVCP140.dll
 0000:fffcb004       __guard_fids__             00400004     MSVCRT:exe_main.obj
 0001:fffff008       __ehhandler$?open@?$basic_filebuf@DU?$char_traits@D@std@@@std@@QAEPAV12@PBDHH@Z 00400008 f   HeroObject.obj
 0001:fffff008       __ehhandler$?overflow@?$basic_filebuf@DU?$char_traits@D@std@@@std@@MAEHH@Z 00400008 f   HeroObject.obj
 0001:fffff008       __ehhandler$?uflow@?$basic_filebuf@DU?$char_traits@D@std@@@std@@MAEHXZ 00400008 f   HeroObject.obj
 0001:fffff008       __ehhandler$?_Endwrite@?$basic_filebuf@DU?$char_traits@D@std@@@std@@IAE_NXZ 00400008 f   HeroObject.obj
 0002:fffd5008       __ehfuncinfo$??0?$basic_string@DU?$char_traits@D@std@@V?$allocator@D@2@@std@@QAE@QBD@Z 00400008     HeroObject.obj
 0002:fffd5008       __ehfuncinfo$??0?$basic_string@DU?$char_traits@D@std@@V?$allocator@D@2@@std@@QAE@ID@Z 00400008     HeroObject.obj
 0002:fffd5008       __ehfuncinfo$??0?$basic_filebuf@DU?$char_traits@D@std@@@std@@QAE@PAU_iobuf@@@Z 00400008     HeroObject.obj
 0002:fffd5008       __ehfuncinfo$?open@?$basic_filebuf@DU?$char_traits@D@std@@@std@@QAEPAV12@PBDHH@Z 00400008     HeroObject.obj
 0002:fffd5008       __ehfuncinfo$?overflow@?$basic_filebuf@DU?$char_traits@D@std@@@std@@MAEHH@Z 00400008     HeroObject.obj
 0002:fffd5008       __ehfuncinfo$?uflow@?$basic_filebuf@DU?$char_traits@D@std@@@std@@MAEHXZ 00400008     HeroObject.obj
 0002:fffd5008       __ehfuncinfo$?_Endwrite@?$basic_filebuf@DU?$char_traits@D@std@@@std@@IAE_NXZ 00400008     HeroObject.obj
 0002:fffd5008       __ehfuncinfo$??$use_facet@V?$codecvt@DDU_Mbstatet@@@std@@@std@@YAABV?$codecvt@DDU_Mbstatet@@@0@ABVlocale@0@@Z 00400008     HeroObject.obj
 0002:fffd5008       __ehfuncinfo$??$?0PADX@?$basic_string@DU?$char_traits@D@std@@V?$allocator@D@2@@std@@QAE@PAD0ABV?$allocator@D@1@@Z 00400008     StatsBar.obj
 0001:fffff008       __ehhandler$??0?$basic_string@DU?$char_traits@D@std@@V?$allocator@D@2@@std@@QAE@QBD@Z 00400008 f   HeroObject.obj
 0001:fffff008       __ehhandler$??0?$basic_string@DU?$char_traits@D@std@@V?$allocator@D@2@@std@@QAE@ID@Z 00400008 f   HeroObject.obj
 0000:fffcb008       __guard_fids__             00400008     MSVCRT:exe_main.obj
 0001:fffff008       __ehhandler$??$?6U?$char_traits@D@std@@@std@@YAAAV?$basic_ostream@DU?$char_traits@D@std@@@0@AAV10@PBD@Z 00400008 f   PsyagceTileManager.obj
 0001:fffff008       __ehhandler$??0sentry@?$basic_ostream@DU?$char_traits@D@std@@@std@@QAE@AAV12@@Z 00400008 f   PsyagceTileManager.obj
 0002:fffd5008       __ehfuncinfo$??0sentry@?$basic_ostream@DU?$char_traits@D@std@@@std@@QAE@AAV12@@Z 00400008     PsyagceTileManager.obj
 0001:fffff008       __ehhandler$??$?0PADX@?$basic_string@DU?$char_traits@D@std@@V?$allocator@D@2@@std@@QAE@PAD0ABV?$allocator@D@1@@Z 00400008 f   StatsBar.obj
 0002:fffd5008       __ehfuncinfo$??$?0PADX@?$basic_string@DU?$char_traits@D@std@@V?$allocator@D@2@@std@@QAE@PAD0ABV?$allocator@D@1@@Z 00400008     PsyagceEngine.obj
 0002:fffd5008       __ehfuncinfo$??0?$basic_string@DU?$char_traits@D@std@@V?$allocator@D@2@@std@@QAE@ID@Z 00400008     PsyagceEngine.obj
 0001:fffff008       __ehhandler$?_Endwrite@?$basic_filebuf@DU?$char_traits@D@std@@@std@@IAE_NXZ 00400008 f   PsyagceEngine.obj
 0001:fffff008       __ehhandler$?uflow@?$basic_filebuf@DU?$char_traits@D@std@@@std@@MAEHXZ 00400008 f   PsyagceEngine.obj
 0001:fffff008       __ehhandler$?overflow@?$basic_filebuf@DU?$char_traits@D@std@@@std@@MAEHH@Z 00400008 f   PsyagceEngine.obj
 0001:fffff008       __ehhandler$?open@?$basic_filebuf@DU?$char_traits@D@std@@@std@@QAEPAV12@PBDHH@Z 00400008 f   PsyagceEngine.obj
 0001:fffff008       __ehhandler$??0?$basic_string@DU?$char_traits@D@std@@V?$allocator@D@2@@std@@QAE@ID@Z 00400008 f   PsyagceEngine.obj
 0002:fffd5008       __ehfuncinfo$??0?$basic_filebuf@DU?$char_traits@D@std@@@std@@QAE@PAU_iobuf@@@Z 00400008     PsyagceEngine.obj
 0002:fffd5008       __ehfuncinfo$??$use_facet@V?$codecvt@DDU_Mbstatet@@@std@@@std@@YAABV?$codecvt@DDU_Mbstatet@@@0@ABVlocale@0@@Z 00400008     PsyagceEngine.obj
 0002:fffd5008       __ehfuncinfo$?open@?$basic_filebuf@DU?$char_traits@D@std@@@std@@QAEPAV12@PBDHH@Z 00400008     PsyagceEngine.obj
 0002:fffd5008       __ehfuncinfo$?overflow@?$basic_filebuf@DU?$char_traits@D@std@@@std@@MAEHH@Z 00400008     PsyagceEngine.obj
 0002:fffd5008       __ehfuncinfo$?uflow@?$basic_filebuf@DU?$char_traits@D@std@@@std@@MAEHXZ 00400008     PsyagceEngine.obj
 0002:fffd5008       __ehfuncinfo$?_Endwrite@?$basic_filebuf@DU?$char_traits@D@std@@@std@@IAE_NXZ 00400008     PsyagceEngine.obj
 0001:fffff008       __ehhandler$??$?0PADX@?$basic_string@DU?$char_traits@D@std@@V?$allocator@D@2@@std@@QAE@PAD0ABV?$allocator@D@1@@Z 00400008 f   PsyagceEngine.obj
 0001:fffff009       __ehhandler$??$use_facet@V?$codecvt@DDU_Mbstatet@@@std@@@std@@YAABV?$codecvt@DDU_Mbstatet@@@0@ABVlocale@0@@Z 00400009 f   HeroObject.obj
 0001:fffff009       __ehhandler$??0?$basic_filebuf@DU?$char_traits@D@std@@@std@@QAE@PAU_iobuf@@@Z 00400009 f   PsyagceEngine.obj
 0001:fffff009       __ehhandler$??$use_facet@V?$codecvt@DDU_Mbstatet@@@std@@@std@@YAABV?$codecvt@DDU_Mbstatet@@@0@ABVlocale@0@@Z 00400009 f   PsyagceEngine.obj
 0001:fffff009       __ehhandler$??0?$basic_filebuf@DU?$char_traits@D@std@@@std@@QAE@PAU_iobuf@@@Z 00400009 f   HeroObject.obj
 0002:fffd5010       __tryblocktable$??$?6U?$char_traits@D@std@@@std@@YAAAV?$basic_ostream@DU?$char_traits@D@std@@@0@AAV10@PBD@Z 00400010     PsyagceTileManager.obj
 0002:fffd5018       __ehfuncinfo$??0?$basic_ifstream@DU?$char_traits@D@std@@@std@@QAE@PBDHH@Z 00400018     HeroObject.obj
 0002:fffd5018       __ehfuncinfo$??0?$basic_ifstream@DU?$char_traits@D@std@@@std@@QAE@PBDHH@Z 00400018     PsyagceEngine.obj
 0001:fffff01d       __unwindfunclet$??0?$basic_ifstream@DU?$char_traits@D@std@@@std@@QAE@PBDHH@Z$1 0040001d f   HeroObject.obj
 0001:fffff01d       __unwindfunclet$??0?$basic_ifstream@DU?$char_traits@D@std@@@std@@QAE@PBDHH@Z$1 0040001d f   PsyagceEngine.obj
 0002:fffd5024       __unwindtable$??$?6U?$char_traits@D@std@@@std@@YAAAV?$basic_ostream@DU?$char_traits@D@std@@@0@AAV10@PBD@Z 00400024     PsyagceTileManager.obj
 0001:fffff029       __unwindfunclet$??0?$basic_ifstream@DU?$char_traits@D@std@@@std@@QAE@PBDHH@Z$2 00400029 f   PsyagceEngine.obj
 0001:fffff029       __unwindfunclet$??0?$basic_ifstream@DU?$char_traits@D@std@@@std@@QAE@PBDHH@Z$2 00400029 f   HeroObject.obj
 0001:fffff034       __ehhandler$??0?$basic_ifstream@DU?$char_traits@D@std@@@std@@QAE@PBDHH@Z 00400034 f   PsyagceEngine.obj
 0001:fffff034       __ehhandler$??0?$basic_ifstream@DU?$char_traits@D@std@@@std@@QAE@PBDHH@Z 00400034 f   HeroObject.obj
 0002:fffd503c       __ehfuncinfo$??$?6U?$char_traits@D@std@@@std@@YAAAV?$basic_ostream@DU?$char_traits@D@std@@@0@AAV10@PBD@Z 0040003c     PsyagceTileManager.obj
 0001:fffff2ba       __catch$??$?6U?$char_traits@D@std@@@std@@YAAAV?$basic_ostream@DU?$char_traits@D@std@@@0@AAV10@PBD@Z$0 004002ba f   PsyagceTileManager.obj
 0001:00001ced       ??__E_Fac_tidy_reg@std@@YAXXZ 00402ced f   msvcprt:locale0_implib.obj
 0001:000038a0       _memcpy_s                  004048a0 f   EnemyObject.obj
 0001:00004ca0       ??$_Reallocate_for@V<lambda_9366063389c5f42a00a5088cf24e69de>@@PBD@?$basic_string@DU?$char_traits@D@std@@V?$allocator@D@2@@std@@QAEAAV01@IV<lambda_9366063389c5f42a00a5088cf24e69de>@@PBD@Z 00405ca0 f   EnemyObject.obj
 0001:00004dc0       ??$_Reallocate_for@V<lambda_c6753c90be971fc9cc00b4f35f237a75>@@D@?$basic_string@DU?$char_traits@D@std@@V?$allocator@D@2@@std@@QAEAAV01@IV<lambda_c6753c90be971fc9cc00b4f35f237a75>@@D@Z 00405dc0 f   EnemyObject.obj
 0001:00004ee0       ??$_Reallocate_grow_by@V<lambda_c1b8c41cb4019640539cfd828748c4d4>@@ID@?$basic_string@DU?$char_traits@D@std@@V?$allocator@D@2@@std@@QAEAAV01@IV<lambda_c1b8c41cb4019640539cfd828748c4d4>@@ID@Z 00405ee0 f   EnemyObject.obj
 0001:00005bc0       ??R<lambda_9366063389c5f42a00a5088cf24e69de>@@QBE@QADIQBD@Z 00406bc0 f   EnemyObject.obj
 0001:00005c10       ??R<lambda_c1b8c41cb4019640539cfd828748c4d4>@@QBE@QADQBDIID@Z 00406c10 f   EnemyObject.obj
 0001:00005c80       ??R<lambda_c6753c90be971fc9cc00b4f35f237a75>@@QBE@QADID@Z 00406c80 f   EnemyObject.obj
 0001:00008258       $LN19                      00409258     Equipment.obj
 0001:0000886c       $LN45                      0040986c     Equipment.obj
 0001:000097d0       ??$_Reallocate_for@V<lambda_9366063389c5f42a00a5088cf24e69de>@@PBD@?$basic_string@DU?$char_traits@D@std@@V?$allocator@D@2@@std@@QAEAAV01@IV<lambda_9366063389c5f42a00a5088cf24e69de>@@PBD@Z 0040a7d0 f   Equipment.obj
 0001:000098f0       ??$_Reallocate_grow_by@V<lambda_67d87d4aa1269033985980465fd1d824>@@$$V@?$basic_string@DU?$char_traits@D@std@@V?$allocator@D@2@@std@@QAEAAV01@IV<lambda_67d87d4aa1269033985980465fd1d824>@@@Z 0040a8f0 f   Equipment.obj
 0001:00009a60       ??$_Reallocate_grow_by@V<lambda_ab246b20b9526e2ef7792587e4298a77>@@PBDI@?$basic_string@DU?$char_traits@D@std@@V?$allocator@D@2@@std@@QAEAAV01@IV<lambda_ab246b20b9526e2ef7792587e4298a77>@@PBDI@Z 0040aa60 f   Equipment.obj
 0001:00009fd0       ??R<lambda_67d87d4aa1269033985980465fd1d824>@@QBE@QADQBDI@Z 0040afd0 f   Equipment.obj
 0001:0000a000       ??R<lambda_9366063389c5f42a00a5088cf24e69de>@@QBE@QADIQBD@Z 0040b000 f   Equipment.obj
 0001:0000a050       ??R<lambda_ab246b20b9526e2ef7792587e4298a77>@@QBE@QADQBDI1I@Z 0040b050 f   Equipment.obj
 0001:0000a840       _memcpy_s                  0040b840 f   HeroObject.obj
 0001:0000c900       ??$_Reallocate_for@V<lambda_9366063389c5f42a00a5088cf24e69de>@@PBD@?$basic_string@DU?$char_traits@D@std@@V?$allocator@D@2@@std@@QAEAAV01@IV<lambda_9366063389c5f42a00a5088cf24e69de>@@PBD@Z 0040d900 f   HeroObject.obj
 0001:0000ca20       ??$_Reallocate_for@V<lambda_c6753c90be971fc9cc00b4f35f237a75>@@D@?$basic_string@DU?$char_traits@D@std@@V?$allocator@D@2@@std@@QAEAAV01@IV<lambda_c6753c90be971fc9cc00b4f35f237a75>@@D@Z 0040da20 f   HeroObject.obj
 0001:0000cb40       ??$_Reallocate_grow_by@V<lambda_c1b8c41cb4019640539cfd828748c4d4>@@ID@?$basic_string@DU?$char_traits@D@std@@V?$allocator@D@2@@std@@QAEAAV01@IV<lambda_c1b8c41cb4019640539cfd828748c4d4>@@ID@Z 0040db40 f   HeroObject.obj
 0001:0000cd00       ??R<lambda_9366063389c5f42a00a5088cf24e69de>@@QBE@QADIQBD@Z 0040dd00 f   HeroObject.obj
 0001:0000cd50       ??R<lambda_c1b8c41cb4019640539cfd828748c4d4>@@QBE@QADQBDIID@Z 0040dd50 f   HeroObject.obj
 0001:0000cdc0       ??R<lambda_c6753c90be971fc9cc00b4f35f237a75>@@QBE@QADID@Z 0040ddc0 f   HeroObject.obj
 0001:0000cfd0       _time                      0040dfd0 f   mainfunction.obj
 0001:0000e090       $LN46                      0040f090     BaseEngine.obj
 0001:000113d4       $LN45                      004123d4     BaseEngine.obj
 0001:000113f0       $LN44                      004123f0     BaseEngine.obj
 0001:00011468       $LN46                      00412468     BaseEngine.obj
 0001:000132d0       _memcpy_s                  004142d0 f   PsyagceEngine.obj
 0001:00013fdc       $LN22                      00414fdc     PsyagceEngine.obj
 0001:00016f60       $LN10                      00417f60     PsyagceEngine.obj
 0001:00016fa0       _time                      00417fa0 f   PsyagceEngine.obj
 0001:00017fe1       __catch$??$?5DU?$char_traits@D@std@@V?$allocator@D@1@@std@@YAAAV?$basic_istream@DU?$char_traits@D@std@@@0@$$QAV10@AAV?$basic_string@DU?$char_traits@D@std@@V?$allocator@D@2@@0@@Z$0 00418fe1 f i PsyagceEngine.obj
 0001:0001843a       __catch$??$?6U?$char_traits@D@std@@@std@@YAAAV?$basic_ostream@DU?$char_traits@D@std@@@0@AAV10@PBD@Z$0 0041943a f i PsyagceEngine.obj
 0001:00018aa3       __catch$??$_Insert_string@DU?$char_traits@D@std@@I@std@@YAAAV?$basic_ostream@DU?$char_traits@D@std@@@0@AAV10@QBDI@Z$0 00419aa3 f i PsyagceEngine.obj
 0001:00018be0       ??$_Reallocate_for@V<lambda_9366063389c5f42a00a5088cf24e69de>@@PBD@?$basic_string@DU?$char_traits@D@std@@V?$allocator@D@2@@std@@QAEAAV01@IV<lambda_9366063389c5f42a00a5088cf24e69de>@@PBD@Z 00419be0 f   PsyagceEngine.obj
 0001:00018d00       ??$_Reallocate_for@V<lambda_c6753c90be971fc9cc00b4f35f237a75>@@D@?$basic_string@DU?$char_traits@D@std@@V?$allocator@D@2@@std@@QAEAAV01@IV<lambda_c6753c90be971fc9cc00b4f35f237a75>@@D@Z 00419d00 f   PsyagceEngine.obj
 0001:00018e20       ??$_Reallocate_grow_by@V<lambda_4d79bb85f269e6e8002a4599002d832c>@@IPBDI@?$basic_string@DU?$char_traits@D@std@@V?$allocator@D@2@@std@@QAEAAV01@IV<lambda_4d79bb85f269e6e8002a4599002d832c>@@IPBDI@Z 00419e20 f   PsyagceEngine.obj
 0001:00018fa0       ??$_Reallocate_grow_by@V<lambda_67d87d4aa1269033985980465fd1d824>@@$$V@?$basic_string@DU?$char_traits@D@std@@V?$allocator@D@2@@std@@QAEAAV01@IV<lambda_67d87d4aa1269033985980465fd1d824>@@@Z 00419fa0 f   PsyagceEngine.obj
 0001:00019110       ??$_Reallocate_grow_by@V<lambda_ab246b20b9526e2ef7792587e4298a77>@@PBDI@?$basic_string@DU?$char_traits@D@std@@V?$allocator@D@2@@std@@QAEAAV01@IV<lambda_ab246b20b9526e2ef7792587e4298a77>@@PBDI@Z 0041a110 f   PsyagceEngine.obj
 0001:00019290       ??$_Reallocate_grow_by@V<lambda_c1b8c41cb4019640539cfd828748c4d4>@@ID@?$basic_string@DU?$char_traits@D@std@@V?$allocator@D@2@@std@@QAEAAV01@IV<lambda_c1b8c41cb4019640539cfd828748c4d4>@@ID@Z 0041a290 f   PsyagceEngine.obj
 0001:00019673       __catch$??$emplace_back@ABH@?$vector@HV?$allocator@H@std@@@std@@QAE@ABH@Z$0 0041a673 f i PsyagceEngine.obj
 0001:0001a0c0       ??R<lambda_4d79bb85f269e6e8002a4599002d832c>@@QBE@QADQBDII1I@Z 0041b0c0 f   PsyagceEngine.obj
 0001:0001a140       ??R<lambda_67d87d4aa1269033985980465fd1d824>@@QBE@QADQBDI@Z 0041b140 f   PsyagceEngine.obj
 0001:0001a170       ??R<lambda_9366063389c5f42a00a5088cf24e69de>@@QBE@QADIQBD@Z 0041b170 f   PsyagceEngine.obj
 0001:0001a1c0       ??R<lambda_ab246b20b9526e2ef7792587e4298a77>@@QBE@QADQBDI1I@Z 0041b1c0 f   PsyagceEngine.obj
 0001:0001a230       ??R<lambda_c1b8c41cb4019640539cfd828748c4d4>@@QBE@QADQBDIID@Z 0041b230 f   PsyagceEngine.obj
 0001:0001a2a0       ??R<lambda_c6753c90be971fc9cc00b4f35f237a75>@@QBE@QADID@Z 0041b2a0 f   PsyagceEngine.obj
 0001:0001b47c       $LN12                      0041c47c     PsyagceTileManager.obj
 0001:0001b8fc       $LN17                      0041c8fc     SimpleDemo.obj
 0001:0001d160       ??$_Reallocate_for@V<lambda_9366063389c5f42a00a5088cf24e69de>@@PBD@?$basic_string@DU?$char_traits@D@std@@V?$allocator@D@2@@std@@QAEAAV01@IV<lambda_9366063389c5f42a00a5088cf24e69de>@@PBD@Z 0041e160 f   StatsBar.obj
 0001:0001d280       ??$_Reallocate_grow_by@V<lambda_4d79bb85f269e6e8002a4599002d832c>@@IPBDI@?$basic_string@DU?$char_traits@D@std@@V?$allocator@D@2@@std@@QAEAAV01@IV<lambda_4d79bb85f269e6e8002a4599002d832c>@@IPBDI@Z 0041e280 f   StatsBar.obj
 0001:0001d400       ??R<lambda_4d79bb85f269e6e8002a4599002d832c>@@QBE@QADQBDII1I@Z 0041e400 f   StatsBar.obj
 0001:0001d480       ??R<lambda_9366063389c5f42a00a5088cf24e69de>@@QBE@QADIQBD@Z 0041e480 f   StatsBar.obj
 0001:0001dab0       $LN23                      0041eab0     BouncingBall.obj
 0001:0001ef70       $LN26                      0041ff70     BouncingBallMain.obj
 0001:00020da8       $LN11                      00421da8     Demo3Object.obj
 0001:00020e18       $LN11                      00421e18     Demo3Object.obj
 0001:000212fc       $LN25                      004222fc     Demo3ObjectFinished.obj
 0001:00021304       $LN21                      00422304     Demo3ObjectFinished.obj
 0001:000214c8       $LN11                      004224c8     Demo3ObjectFinished.obj
 0001:00021538       $LN11                      00422538     Demo3ObjectFinished.obj
 0001:00021724       $LN8                       00422724     Demo3TileManager.obj
 0001:0002172c       $LN7                       0042272c     Demo3TileManager.obj
 0001:00022734       $LN32                      00423734     Demo4Object.obj
 0001:0002273c       $LN27                      0042373c     Demo4Object.obj
 0001:000229c8       $LN11                      004239c8     Demo4Object.obj
 0001:00022a68       $LN11                      00423a68     Demo4Object.obj
 0001:00022c54       $LN8                       00423c54     Demo4TileManager.obj
 0001:00022c5c       $LN7                       00423c5c     Demo4TileManager.obj
 0001:00023006       ?pre_c_initialization@@YAHXZ 00424006 f   MSVCRT:exe_main.obj
 0001:000230d3       ?post_pgo_initialization@@YAHXZ 004240d3 f   MSVCRT:exe_main.obj
 0001:000230dd       ?pre_cpp_initialization@@YAXXZ 004240dd f   MSVCRT:exe_main.obj
 0001:000230f3       ?__scrt_common_main@@YAHXZ 004240f3 f   MSVCRT:exe_main.obj
 0001:000230ff       ?__scrt_common_main_seh@@YAHXZ 004240ff f   MSVCRT:exe_main.obj
 0001:000232e8       ?invoke_main@@YAHXZ        004242e8 f   MSVCRT:exe_main.obj
 0001:00023442       ?find_pe_section@@YAPAU_IMAGE_SECTION_HEADER@@QAEI@Z 00424442 f   MSVCRT:utility.obj
 0001:00023497       ?is_potentially_valid_image_base@@YA_NQAX@Z 00424497 f   MSVCRT:utility.obj
 0001:000239f7       ?ArrayUnwindFilter@@YAHPAU_EXCEPTION_POINTERS@@@Z 004249f7 f   MSVCRT:ehvecdtr.obj
 0001:00023aa5       ___get_entropy             00424aa5 f   MSVCRT:gs_support.obj
 0001:00023ee0       $$000000                   00424ee0     MSVCRT:_sehprolg4_.obj
 0001:000248c0       _ParseCommandLine          004258c0 f   SDL2main:SDL_windows_main.obj
 0001:000249e0       _UnEscapeQuotes            004259e0 f   SDL2main:SDL_windows_main.obj
 0001:00026240       __unwindfunclet$??0ArrowObject@@QAE@PAVPsyagceEngine@@HH@Z$0 00427240 f   ArrowObject.obj
 0001:00026248       __ehhandler$??0ArrowObject@@QAE@PAVPsyagceEngine@@HH@Z 00427248 f   ArrowObject.obj
 0001:00026270       __unwindfunclet$??0EnemyObject@@QAE@PAVBaseEngine@@HHHH@Z$0 00427270 f   EnemyObject.obj
 0001:00026278       __unwindfunclet$??0EnemyObject@@QAE@PAVBaseEngine@@HHHH@Z$1 00427278 f   EnemyObject.obj
 0001:00026283       __unwindfunclet$??0EnemyObject@@QAE@PAVBaseEngine@@HHHH@Z$2 00427283 f   EnemyObject.obj
 0001:00026295       __ehhandler$??0EnemyObject@@QAE@PAVBaseEngine@@HHHH@Z 00427295 f   EnemyObject.obj
 0001:000262d0       __unwindfunclet$??$use_facet@V?$codecvt@DDU_Mbstatet@@@std@@@std@@YAABV?$codecvt@DDU_Mbstatet@@@0@ABVlocale@0@@Z$0 004272d0 f   EnemyObject.obj
 0001:000262d9       __ehhandler$??$use_facet@V?$codecvt@DDU_Mbstatet@@@std@@@std@@YAABV?$codecvt@DDU_Mbstatet@@@0@ABVlocale@0@@Z 004272d9 f   EnemyObject.obj
 0001:00026300       __unwindfunclet$??0?$basic_filebuf@DU?$char_traits@D@std@@@std@@QAE@PAU_iobuf@@@Z$0 00427300 f   EnemyObject.obj
 0001:00026309       __ehhandler$??0?$basic_filebuf@DU?$char_traits@D@std@@@std@@QAE@PAU_iobuf@@@Z 00427309 f   EnemyObject.obj
 0001:00026330       __unwindfunclet$??0?$basic_ifstream@DU?$char_traits@D@std@@@std@@QAE@PBDHH@Z$0 00427330 f   EnemyObject.obj
 0001:0002634d       __unwindfunclet$??0?$basic_ifstream@DU?$char_traits@D@std@@@std@@QAE@PBDHH@Z$1 0042734d f   EnemyObject.obj
 0001:00026359       __unwindfunclet$??0?$basic_ifstream@DU?$char_traits@D@std@@@std@@QAE@PBDHH@Z$2 00427359 f   EnemyObject.obj
 0001:00026364       __ehhandler$??0?$basic_ifstream@DU?$char_traits@D@std@@@std@@QAE@PBDHH@Z 00427364 f   EnemyObject.obj
 0001:000263a0       __unwindfunclet$??0?$basic_string@DU?$char_traits@D@std@@V?$allocator@D@2@@std@@QAE@ID@Z$0 004273a0 f   EnemyObject.obj
 0001:000263a8       __ehhandler$??0?$basic_string@DU?$char_traits@D@std@@V?$allocator@D@2@@std@@QAE@ID@Z 004273a8 f   EnemyObject.obj
 0001:000263d0       __unwindfunclet$??0?$basic_string@DU?$char_traits@D@std@@V?$allocator@D@2@@std@@QAE@QBD@Z$0 004273d0 f   EnemyObject.obj
 0001:000263d8       __ehhandler$??0?$basic_string@DU?$char_traits@D@std@@V?$allocator@D@2@@std@@QAE@QBD@Z 004273d8 f   EnemyObject.obj
 0001:00026400       __ehhandler$??0?$basic_string@DU?$char_traits@D@std@@V?$allocator@D@2@@std@@QAE@XZ 00427400 f   EnemyObject.obj
 0001:00026430       __ehhandler$??1?$basic_filebuf@DU?$char_traits@D@std@@@std@@UAE@XZ 00427430 f   EnemyObject.obj
 0001:00026460       __ehhandler$??1?$basic_string@DU?$char_traits@D@std@@V?$allocator@D@2@@std@@QAE@XZ 00427460 f   EnemyObject.obj
 0001:00026490       __ehhandler$??1locale@std@@QAE@XZ 00427490 f   EnemyObject.obj
 0001:000264c0       __unwindfunclet$?_Endwrite@?$basic_filebuf@DU?$char_traits@D@std@@@std@@IAE_NXZ$0 004274c0 f   EnemyObject.obj
 0001:000264c8       __ehhandler$?_Endwrite@?$basic_filebuf@DU?$char_traits@D@std@@@std@@IAE_NXZ 004274c8 f   EnemyObject.obj
 0001:00026500       __ehhandler$?begin@?$basic_string@DU?$char_traits@D@std@@V?$allocator@D@2@@std@@QAE?AV?$_String_iterator@V?$_String_val@U?$_Simple_types@D@std@@@std@@@2@XZ 00427500 f   EnemyObject.obj
 0001:00026530       __unwindfunclet$?open@?$basic_filebuf@DU?$char_traits@D@std@@@std@@QAEPAV12@PBDHH@Z$0 00427530 f   EnemyObject.obj
 0001:00026538       __ehhandler$?open@?$basic_filebuf@DU?$char_traits@D@std@@@std@@QAEPAV12@PBDHH@Z 00427538 f   EnemyObject.obj
 0001:00026560       __unwindfunclet$?overflow@?$basic_filebuf@DU?$char_traits@D@std@@@std@@MAEHH@Z$0 00427560 f   EnemyObject.obj
 0001:00026568       __ehhandler$?overflow@?$basic_filebuf@DU?$char_traits@D@std@@@std@@MAEHH@Z 00427568 f   EnemyObject.obj
 0001:000265a0       __unwindfunclet$?uflow@?$basic_filebuf@DU?$char_traits@D@std@@@std@@MAEHXZ$0 004275a0 f   EnemyObject.obj
 0001:000265a8       __ehhandler$?uflow@?$basic_filebuf@DU?$char_traits@D@std@@@std@@MAEHXZ 004275a8 f   EnemyObject.obj
 0001:000265e0       __unwindfunclet$??0Equipment@@QAE@PAVBaseEngine@@H@Z$0 004275e0 f   Equipment.obj
 0001:000265e8       __unwindfunclet$??0Equipment@@QAE@PAVBaseEngine@@H@Z$1 004275e8 f   Equipment.obj
 0001:000265f3       __unwindfunclet$??0Equipment@@QAE@PAVBaseEngine@@H@Z$2 004275f3 f   Equipment.obj
 0001:000265fe       __unwindfunclet$??0Equipment@@QAE@PAVBaseEngine@@H@Z$3 004275fe f   Equipment.obj
 0001:0002660c       __ehhandler$??0Equipment@@QAE@PAVBaseEngine@@H@Z 0042760c f   Equipment.obj
 0001:00026627       __unwindfunclet$?SetName@Equipment@@QAEXV?$basic_string@DU?$char_traits@D@std@@V?$allocator@D@2@@std@@@Z$0 00427627 f   Equipment.obj
 0001:0002662f       __ehhandler$?SetName@Equipment@@QAEXV?$basic_string@DU?$char_traits@D@std@@V?$allocator@D@2@@std@@@Z 0042762f f   Equipment.obj
 0001:0002664a       __unwindfunclet$?PrintDesc@Equipment@@QAEXXZ$0 0042764a f   Equipment.obj
 0001:00026652       __unwindfunclet$?PrintDesc@Equipment@@QAEXXZ$2 00427652 f   Equipment.obj
 0001:0002665a       __unwindfunclet$?PrintDesc@Equipment@@QAEXXZ$3 0042765a f   Equipment.obj
 0001:00026662       __unwindfunclet$?PrintDesc@Equipment@@QAEXXZ$4 00427662 f   Equipment.obj
 0001:0002666d       __unwindfunclet$?PrintDesc@Equipment@@QAEXXZ$5 0042766d f   Equipment.obj
 0001:00026678       __unwindfunclet$?PrintDesc@Equipment@@QAEXXZ$6 00427678 f   Equipment.obj
 0001:00026683       __ehhandler$?PrintDesc@Equipment@@QAEXXZ 00427683 f   Equipment.obj
 0001:000266e0       __unwindfunclet$??$?0PADX@?$basic_string@DU?$char_traits@D@std@@V?$allocator@D@2@@std@@QAE@PAD0ABV?$allocator@D@1@@Z$0 004276e0 f   Equipment.obj
 0001:000266e8       __ehhandler$??$?0PADX@?$basic_string@DU?$char_traits@D@std@@V?$allocator@D@2@@std@@QAE@PAD0ABV?$allocator@D@1@@Z 004276e8 f   Equipment.obj
 0001:00026710       __unwindfunclet$??$?HDU?$char_traits@D@std@@V?$allocator@D@1@@std@@YA?AV?$basic_string@DU?$char_traits@D@std@@V?$allocator@D@2@@0@ABV10@0@Z$0 00427710 f   Equipment.obj
 0001:00026718       __ehhandler$??$?HDU?$char_traits@D@std@@V?$allocator@D@1@@std@@YA?AV?$basic_string@DU?$char_traits@D@std@@V?$allocator@D@2@@0@ABV10@0@Z 00427718 f   Equipment.obj
 0001:00026750       __ehhandler$??0?$basic_string@DU?$char_traits@D@std@@V?$allocator@D@2@@std@@QAE@$$QAV01@@Z 00427750 f   Equipment.obj
 0001:00026780       __ehhandler$??4?$basic_string@DU?$char_traits@D@std@@V?$allocator@D@2@@std@@QAEAAV01@$$QAV01@@Z 00427780 f   Equipment.obj
 0001:000267b0       __ehhandler$?_Assign_rv_contents_with_alloc_always_equal@?$basic_string@DU?$char_traits@D@std@@V?$allocator@D@2@@std@@QAEX$$QAV12@U?$integral_constant@_N$00@2@@Z 004277b0 f   Equipment.obj
 0001:000267e0       __ehhandler$?_Equal@?$basic_string@DU?$char_traits@D@std@@V?$allocator@D@2@@std@@QBE_NQBD@Z 004277e0 f   Equipment.obj
 0001:00026810       __ehhandler$?c_str@?$basic_string@DU?$char_traits@D@std@@V?$allocator@D@2@@std@@QBEPBDXZ 00427810 f   Equipment.obj
 0001:00026840       __unwindfunclet$??0HeroObject@@QAE@PAVBaseEngine@@HH@Z$0 00427840 f   HeroObject.obj
 0001:00026848       __unwindfunclet$??0HeroObject@@QAE@PAVBaseEngine@@HH@Z$1 00427848 f   HeroObject.obj
 0001:00026856       __unwindfunclet$??0HeroObject@@QAE@PAVBaseEngine@@HH@Z$2 00427856 f   HeroObject.obj
 0001:00026864       __unwindfunclet$??0HeroObject@@QAE@PAVBaseEngine@@HH@Z$3 00427864 f   HeroObject.obj
 0001:0002686f       __unwindfunclet$??0HeroObject@@QAE@PAVBaseEngine@@HH@Z$4 0042786f f   HeroObject.obj
 0001:00026881       __unwindfunclet$??0HeroObject@@QAE@PAVBaseEngine@@HH@Z$6 00427881 f   HeroObject.obj
 0001:00026893       __unwindfunclet$??0HeroObject@@QAE@PAVBaseEngine@@HH@Z$8 00427893 f   HeroObject.obj
 0001:000268a5       __unwindfunclet$??0HeroObject@@QAE@PAVBaseEngine@@HH@Z$10 004278a5 f   HeroObject.obj
 0001:000268b7       __ehhandler$??0HeroObject@@QAE@PAVBaseEngine@@HH@Z 004278b7 f   HeroObject.obj
 0001:000268d5       __ehhandler$??1HeroObject@@UAE@XZ 004278d5 f   HeroObject.obj
 0001:000268f0       __unwindfunclet$?InitInventory@HeroObject@@QAEXXZ$0 004278f0 f   HeroObject.obj
 0001:000268ff       __unwindfunclet$?InitInventory@HeroObject@@QAEXXZ$1 004278ff f   HeroObject.obj
 0001:00026911       __unwindfunclet$?InitInventory@HeroObject@@QAEXXZ$2 00427911 f   HeroObject.obj
 0001:00026920       __unwindfunclet$?InitInventory@HeroObject@@QAEXXZ$3 00427920 f   HeroObject.obj
 0001:00026932       __unwindfunclet$?InitInventory@HeroObject@@QAEXXZ$4 00427932 f   HeroObject.obj
 0001:00026941       __unwindfunclet$?InitInventory@HeroObject@@QAEXXZ$5 00427941 f   HeroObject.obj
 0001:00026953       __unwindfunclet$?InitInventory@HeroObject@@QAEXXZ$6 00427953 f   HeroObject.obj
 0001:00026962       __unwindfunclet$?InitInventory@HeroObject@@QAEXXZ$7 00427962 f   HeroObject.obj
 0001:00026974       __unwindfunclet$?InitInventory@HeroObject@@QAEXXZ$8 00427974 f   HeroObject.obj
 0001:00026983       __unwindfunclet$?InitInventory@HeroObject@@QAEXXZ$9 00427983 f   HeroObject.obj
 0001:00026995       __unwindfunclet$?InitInventory@HeroObject@@QAEXXZ$10 00427995 f   HeroObject.obj
 0001:000269a4       __unwindfunclet$?InitInventory@HeroObject@@QAEXXZ$11 004279a4 f   HeroObject.obj
 0001:000269b6       __unwindfunclet$?InitInventory@HeroObject@@QAEXXZ$12 004279b6 f   HeroObject.obj
 0001:000269c5       __unwindfunclet$?InitInventory@HeroObject@@QAEXXZ$13 004279c5 f   HeroObject.obj
 0001:000269d7       __unwindfunclet$?InitInventory@HeroObject@@QAEXXZ$14 004279d7 f   HeroObject.obj
 0001:000269e9       __unwindfunclet$?InitInventory@HeroObject@@QAEXXZ$15 004279e9 f   HeroObject.obj
 0001:000269fe       __ehhandler$?InitInventory@HeroObject@@QAEXXZ 004279fe f   HeroObject.obj
 0001:00026aa0       __ehhandler$??1BaseEngine@@UAE@XZ 00427aa0 f   BaseEngine.obj
 0001:00026ad0       __unwindfunclet$?GetFont@FontManager@@QAEPAVFont@@PBDH@Z$0 00427ad0 f   FontManager.obj
 0001:00026adf       __ehhandler$?GetFont@FontManager@@QAEPAVFont@@PBDH@Z 00427adf f   FontManager.obj
 0001:00026b10       __unwindfunclet$??0PsyagceEngine@@QAE@XZ$0 00427b10 f   PsyagceEngine.obj
 0001:00026b18       __unwindfunclet$??0PsyagceEngine@@QAE@XZ$1 00427b18 f   PsyagceEngine.obj
 0001:00026b23       __unwindfunclet$??0PsyagceEngine@@QAE@XZ$2 00427b23 f   PsyagceEngine.obj
 0001:00026b31       __unwindfunclet$??0PsyagceEngine@@QAE@XZ$3 00427b31 f   PsyagceEngine.obj
 0001:00026b3f       __unwindfunclet$??0PsyagceEngine@@QAE@XZ$4 00427b3f f   PsyagceEngine.obj
 0001:00026b4d       __unwindfunclet$??0PsyagceEngine@@QAE@XZ$5 00427b4d f   PsyagceEngine.obj
 0001:00026b5b       __unwindfunclet$??0PsyagceEngine@@QAE@XZ$6 00427b5b f   PsyagceEngine.obj
 0001:00026b69       __unwindfunclet$??0PsyagceEngine@@QAE@XZ$7 00427b69 f   PsyagceEngine.obj
 0001:00026b77       __unwindfunclet$??0PsyagceEngine@@QAE@XZ$8 00427b77 f   PsyagceEngine.obj
 0001:00026b85       __unwindfunclet$??0PsyagceEngine@@QAE@XZ$9 00427b85 f   PsyagceEngine.obj
 0001:00026b93       __unwindfunclet$??0PsyagceEngine@@QAE@XZ$10 00427b93 f   PsyagceEngine.obj
 0001:00026ba1       __unwindfunclet$??0PsyagceEngine@@QAE@XZ$11 00427ba1 f   PsyagceEngine.obj
 0001:00026baf       __unwindfunclet$??0PsyagceEngine@@QAE@XZ$12 00427baf f   PsyagceEngine.obj
 0001:00026bc7       __unwindfunclet$??0PsyagceEngine@@QAE@XZ$13 00427bc7 f   PsyagceEngine.obj
 0001:00026bd2       __ehhandler$??0PsyagceEngine@@QAE@XZ 00427bd2 f   PsyagceEngine.obj
 0001:00026bf0       __ehhandler$??1PsyagceEngine@@UAE@XZ 00427bf0 f   PsyagceEngine.obj
 0001:00026c0b       __unwindfunclet$?DrawStringsOnTop@PsyagceEngine@@UAEXXZ$1 00427c0b f   PsyagceEngine.obj
 0001:00026c13       __unwindfunclet$?DrawStringsOnTop@PsyagceEngine@@UAEXXZ$3 00427c13 f   PsyagceEngine.obj
 0001:00026c1e       __unwindfunclet$?DrawStringsOnTop@PsyagceEngine@@UAEXXZ$5 00427c1e f   PsyagceEngine.obj
 0001:00026c29       __unwindfunclet$?DrawStringsOnTop@PsyagceEngine@@UAEXXZ$7 00427c29 f   PsyagceEngine.obj
 0001:00026c34       __unwindfunclet$?DrawStringsOnTop@PsyagceEngine@@UAEXXZ$9 00427c34 f   PsyagceEngine.obj
 0001:00026c3f       __unwindfunclet$?DrawStringsOnTop@PsyagceEngine@@UAEXXZ$11 00427c3f f   PsyagceEngine.obj
 0001:00026c47       __unwindfunclet$?DrawStringsOnTop@PsyagceEngine@@UAEXXZ$13 00427c47 f   PsyagceEngine.obj
 0001:00026c52       __unwindfunclet$?DrawStringsOnTop@PsyagceEngine@@UAEXXZ$15 00427c52 f   PsyagceEngine.obj
 0001:00026c5d       __unwindfunclet$?DrawStringsOnTop@PsyagceEngine@@UAEXXZ$17 00427c5d f   PsyagceEngine.obj
 0001:00026c68       __ehhandler$?DrawStringsOnTop@PsyagceEngine@@UAEXXZ 00427c68 f   PsyagceEngine.obj
 0001:00026c90       __unwindfunclet$?InitialiseObjects@PsyagceEngine@@UAEHXZ$0 00427c90 f   PsyagceEngine.obj
 0001:00026ca2       __unwindfunclet$?InitialiseObjects@PsyagceEngine@@UAEHXZ$1 00427ca2 f   PsyagceEngine.obj
 0001:00026cb4       __unwindfunclet$?InitialiseObjects@PsyagceEngine@@UAEHXZ$2 00427cb4 f   PsyagceEngine.obj
 0001:00026cc6       __unwindfunclet$?InitialiseObjects@PsyagceEngine@@UAEHXZ$3 00427cc6 f   PsyagceEngine.obj
 0001:00026cd8       __ehhandler$?InitialiseObjects@PsyagceEngine@@UAEHXZ 00427cd8 f   PsyagceEngine.obj
 0001:00026cf3       __unwindfunclet$?SaveStats@PsyagceEngine@@QAEXXZ$0 00427cf3 f   PsyagceEngine.obj
 0001:00026cfe       __unwindfunclet$?SaveStats@PsyagceEngine@@QAEXXZ$1 00427cfe f   PsyagceEngine.obj
 0001:00026d09       __unwindfunclet$?SaveStats@PsyagceEngine@@QAEXXZ$2 00427d09 f   PsyagceEngine.obj
 0001:00026d14       __unwindfunclet$?SaveStats@PsyagceEngine@@QAEXXZ$3 00427d14 f   PsyagceEngine.obj
 0001:00026d1f       __ehhandler$?SaveStats@PsyagceEngine@@QAEXXZ 00427d1f f   PsyagceEngine.obj
 0001:00026d3d       __unwindfunclet$?LoadStats@PsyagceEngine@@QAEXXZ$0 00427d3d f   PsyagceEngine.obj
 0001:00026d48       __unwindfunclet$?LoadStats@PsyagceEngine@@QAEXXZ$1 00427d48 f   PsyagceEngine.obj
 0001:00026d53       __unwindfunclet$?LoadStats@PsyagceEngine@@QAEXXZ$2 00427d53 f   PsyagceEngine.obj
 0001:00026d5e       __ehhandler$?LoadStats@PsyagceEngine@@QAEXXZ 00427d5e f   PsyagceEngine.obj
 0001:00026d7c       __unwindfunclet$?NewGame@PsyagceEngine@@QAEXXZ$0 00427d7c f   PsyagceEngine.obj
 0001:00026d87       __unwindfunclet$?NewGame@PsyagceEngine@@QAEXXZ$1 00427d87 f   PsyagceEngine.obj
 0001:00026d92       __unwindfunclet$?NewGame@PsyagceEngine@@QAEXXZ$2 00427d92 f   PsyagceEngine.obj
 0001:00026d9d       __unwindfunclet$?NewGame@PsyagceEngine@@QAEXXZ$3 00427d9d f   PsyagceEngine.obj
 0001:00026da8       __ehhandler$?NewGame@PsyagceEngine@@QAEXXZ 00427da8 f   PsyagceEngine.obj
 0001:00026e80       __unwindfunclet$??$?5DU?$char_traits@D@std@@V?$allocator@D@1@@std@@YAAAV?$basic_istream@DU?$char_traits@D@std@@@0@$$QAV10@AAV?$basic_string@DU?$char_traits@D@std@@V?$allocator@D@2@@0@@Z$2 00427e80 f   PsyagceEngine.obj
 0001:00026e88       __unwindfunclet$??$?5DU?$char_traits@D@std@@V?$allocator@D@1@@std@@YAAAV?$basic_istream@DU?$char_traits@D@std@@@0@$$QAV10@AAV?$basic_string@DU?$char_traits@D@std@@V?$allocator@D@2@@0@@Z$3 00427e88 f   PsyagceEngine.obj
 0001:00026e90       __ehhandler$??$?5DU?$char_traits@D@std@@V?$allocator@D@1@@std@@YAAAV?$basic_istream@DU?$char_traits@D@std@@@0@$$QAV10@AAV?$basic_string@DU?$char_traits@D@std@@V?$allocator@D@2@@0@@Z 00427e90 f   PsyagceEngine.obj
 0001:00026ec0       __unwindfunclet$??$?6U?$char_traits@D@std@@@std@@YAAAV?$basic_ostream@DU?$char_traits@D@std@@@0@AAV10@PBD@Z$2 00427ec0 f   PsyagceEngine.obj
 0001:00026ec8       __ehhandler$??$?6U?$char_traits@D@std@@@std@@YAAAV?$basic_ostream@DU?$char_traits@D@std@@@0@AAV10@PBD@Z 00427ec8 f   PsyagceEngine.obj
 0001:00026ef0       __unwindfunclet$??$?HDU?$char_traits@D@std@@V?$allocator@D@1@@std@@YA?AV?$basic_string@DU?$char_traits@D@std@@V?$allocator@D@2@@0@QBDABV10@@Z$0 00427ef0 f   PsyagceEngine.obj
 0001:00026ef8       __ehhandler$??$?HDU?$char_traits@D@std@@V?$allocator@D@1@@std@@YA?AV?$basic_string@DU?$char_traits@D@std@@V?$allocator@D@2@@0@QBDABV10@@Z 00427ef8 f   PsyagceEngine.obj
 0001:00026f30       __unwindfunclet$??$_Insert_string@DU?$char_traits@D@std@@I@std@@YAAAV?$basic_ostream@DU?$char_traits@D@std@@@0@AAV10@QBDI@Z$2 00427f30 f   PsyagceEngine.obj
 0001:00026f38       __ehhandler$??$_Insert_string@DU?$char_traits@D@std@@I@std@@YAAAV?$basic_ostream@DU?$char_traits@D@std@@@0@AAV10@QBDI@Z 00427f38 f   PsyagceEngine.obj
 0001:00026f60       __ehhandler$??$emplace_back@ABH@?$vector@HV?$allocator@H@std@@@std@@QAE@ABH@Z 00427f60 f   PsyagceEngine.obj
 0001:00026f90       __unwindfunclet$??$use_facet@V?$ctype@D@std@@@std@@YAABV?$ctype@D@0@ABVlocale@0@@Z$0 00427f90 f   PsyagceEngine.obj
 0001:00026f99       __ehhandler$??$use_facet@V?$ctype@D@std@@@std@@YAABV?$ctype@D@0@ABVlocale@0@@Z 00427f99 f   PsyagceEngine.obj
 0001:00026fc0       __unwindfunclet$??0?$basic_ofstream@DU?$char_traits@D@std@@@std@@QAE@PBDHH@Z$0 00427fc0 f   PsyagceEngine.obj
 0001:00026fdd       __unwindfunclet$??0?$basic_ofstream@DU?$char_traits@D@std@@@std@@QAE@PBDHH@Z$1 00427fdd f   PsyagceEngine.obj
 0001:00026fe9       __unwindfunclet$??0?$basic_ofstream@DU?$char_traits@D@std@@@std@@QAE@PBDHH@Z$2 00427fe9 f   PsyagceEngine.obj
 0001:00026ff4       __ehhandler$??0?$basic_ofstream@DU?$char_traits@D@std@@@std@@QAE@PBDHH@Z 00427ff4 f   PsyagceEngine.obj
 0001:00027030       __ehhandler$??0?$vector@HV?$allocator@H@std@@@std@@QAE@XZ 00428030 f   PsyagceEngine.obj
 0001:00027060       __unwindfunclet$??0sentry@?$basic_istream@DU?$char_traits@D@std@@@std@@QAE@AAV12@_N@Z$0 00428060 f   PsyagceEngine.obj
 0001:00027068       __ehhandler$??0sentry@?$basic_istream@DU?$char_traits@D@std@@@std@@QAE@AAV12@_N@Z 00428068 f   PsyagceEngine.obj
 0001:00027090       __unwindfunclet$??0sentry@?$basic_ostream@DU?$char_traits@D@std@@@std@@QAE@AAV12@@Z$0 00428090 f   PsyagceEngine.obj
 0001:00027098       __ehhandler$??0sentry@?$basic_ostream@DU?$char_traits@D@std@@@std@@QAE@AAV12@@Z 00428098 f   PsyagceEngine.obj
 0001:000270c0       __ehhandler$??1?$vector@HV?$allocator@H@std@@@std@@QAE@XZ 004280c0 f   PsyagceEngine.obj
 0001:000270f0       __ehhandler$??1_Sentry_base@?$basic_istream@DU?$char_traits@D@std@@@std@@QAE@XZ 004280f0 f   PsyagceEngine.obj
 0001:00027120       __ehhandler$??1_Sentry_base@?$basic_ostream@DU?$char_traits@D@std@@@std@@QAE@XZ 00428120 f   PsyagceEngine.obj
 0001:00027150       __ehhandler$??1sentry@?$basic_ostream@DU?$char_traits@D@std@@@std@@QAE@XZ 00428150 f   PsyagceEngine.obj
 0001:00027180       __ehhandler$?data@?$basic_string@DU?$char_traits@D@std@@V?$allocator@D@2@@std@@QBEPBDXZ 00428180 f   PsyagceEngine.obj
 0001:000271b0       __unwindfunclet$??0PsyagceTileManager@@QAE@XZ$0 004281b0 f   PsyagceTileManager.obj
 0001:000271b8       __unwindfunclet$??0PsyagceTileManager@@QAE@XZ$1 004281b8 f   PsyagceTileManager.obj
 0001:000271c3       __unwindfunclet$??0PsyagceTileManager@@QAE@XZ$2 004281c3 f   PsyagceTileManager.obj
 0001:000271ce       __unwindfunclet$??0PsyagceTileManager@@QAE@XZ$3 004281ce f   PsyagceTileManager.obj
 0001:000271d9       __unwindfunclet$??0PsyagceTileManager@@QAE@XZ$4 004281d9 f   PsyagceTileManager.obj
 0001:000271e4       __unwindfunclet$??0PsyagceTileManager@@QAE@XZ$5 004281e4 f   PsyagceTileManager.obj
 0001:000271ef       __unwindfunclet$??0PsyagceTileManager@@QAE@XZ$6 004281ef f   PsyagceTileManager.obj
 0001:000271fa       __ehhandler$??0PsyagceTileManager@@QAE@XZ 004281fa f   PsyagceTileManager.obj
 0001:00027215       __ehhandler$??1PsyagceTileManager@@QAE@XZ 00428215 f   PsyagceTileManager.obj
 0001:00027250       __unwindfunclet$?InitialiseObjects@SimpleDemo@@UAEHXZ$0 00428250 f   SimpleDemo.obj
 0001:0002725f       __ehhandler$?InitialiseObjects@SimpleDemo@@UAEHXZ 0042825f f   SimpleDemo.obj
 0001:00027290       __unwindfunclet$??0SimpleShape@@QAE@PAVSimpleDemo@@@Z$0 00428290 f   SimpleDemo.obj
 0001:00027298       __ehhandler$??0SimpleShape@@QAE@PAVSimpleDemo@@@Z 00428298 f   SimpleDemo.obj
 0001:000272c0       __unwindfunclet$??0SpriteObject@@QAE@PAVBaseEngine@@HH@Z$0 004282c0 f   SpriteObject.obj
 0001:000272c8       __unwindfunclet$??0SpriteObject@@QAE@PAVBaseEngine@@HH@Z$1 004282c8 f   SpriteObject.obj
 0001:000272d3       __unwindfunclet$??0SpriteObject@@QAE@PAVBaseEngine@@HH@Z$2 004282d3 f   SpriteObject.obj
 0001:000272de       __unwindfunclet$??0SpriteObject@@QAE@PAVBaseEngine@@HH@Z$3 004282de f   SpriteObject.obj
 0001:000272e9       __unwindfunclet$??0SpriteObject@@QAE@PAVBaseEngine@@HH@Z$4 004282e9 f   SpriteObject.obj
 0001:000272ff       __ehhandler$??0SpriteObject@@QAE@PAVBaseEngine@@HH@Z 004282ff f   SpriteObject.obj
 0001:0002731a       __ehhandler$??1SpriteObject@@UAE@XZ 0042831a f   SpriteObject.obj
 0001:00027360       __unwindfunclet$??0StatsBar@@QAE@PAVBaseEngine@@HV?$basic_string@DU?$char_traits@D@std@@V?$allocator@D@2@@std@@HH@Z$0 00428360 f   StatsBar.obj
 0001:00027368       __unwindfunclet$??0StatsBar@@QAE@PAVBaseEngine@@HV?$basic_string@DU?$char_traits@D@std@@V?$allocator@D@2@@std@@HH@Z$1 00428368 f   StatsBar.obj
 0001:00027370       __unwindfunclet$??0StatsBar@@QAE@PAVBaseEngine@@HV?$basic_string@DU?$char_traits@D@std@@V?$allocator@D@2@@std@@HH@Z$2 00428370 f   StatsBar.obj
 0001:0002737b       __unwindfunclet$??0StatsBar@@QAE@PAVBaseEngine@@HV?$basic_string@DU?$char_traits@D@std@@V?$allocator@D@2@@std@@HH@Z$3 0042837b f   StatsBar.obj
 0001:00027386       __ehhandler$??0StatsBar@@QAE@PAVBaseEngine@@HV?$basic_string@DU?$char_traits@D@std@@V?$allocator@D@2@@std@@HH@Z 00428386 f   StatsBar.obj
 0001:000273a1       __unwindfunclet$?Draw@StatsBar@@UAEXXZ$0 004283a1 f   StatsBar.obj
 0001:000273a9       __ehhandler$?Draw@StatsBar@@UAEXXZ 004283a9 f   StatsBar.obj
 0001:000273f0       __unwindfunclet$??0BouncingBall@@QAE@PAVBouncingBallMain@@HHHHPBDHH@Z$0 004283f0 f   BouncingBall.obj
 0001:000273f8       __ehhandler$??0BouncingBall@@QAE@PAVBouncingBallMain@@HHHHPBDHH@Z 004283f8 f   BouncingBall.obj
 0001:00027413       __unwindfunclet$??0BouncingBall1@@QAE@PAVBouncingBallMain@@HHHHPBDHHPAVTileManager@@@Z$0 00428413 f   BouncingBall.obj
 0001:0002741b       __ehhandler$??0BouncingBall1@@QAE@PAVBouncingBallMain@@HHHHPBDHHPAVTileManager@@@Z 0042841b f   BouncingBall.obj
 0001:00027450       __unwindfunclet$?SetupBackgroundBuffer@BouncingBallMain@@UAEXXZ$0 00428450 f   BouncingBallMain.obj
 0001:00027458       __unwindfunclet$?SetupBackgroundBuffer@BouncingBallMain@@UAEXXZ$1 00428458 f   BouncingBallMain.obj
 0001:00027460       __ehhandler$?SetupBackgroundBuffer@BouncingBallMain@@UAEXXZ 00428460 f   BouncingBallMain.obj
 0001:0002747b       __unwindfunclet$?InitialiseObjects@BouncingBallMain@@UAEHXZ$0 0042847b f   BouncingBallMain.obj
 0001:0002748a       __unwindfunclet$?InitialiseObjects@BouncingBallMain@@UAEHXZ$1 0042848a f   BouncingBallMain.obj
 0001:00027499       __unwindfunclet$?InitialiseObjects@BouncingBallMain@@UAEHXZ$2 00428499 f   BouncingBallMain.obj
 0001:000274a8       __ehhandler$?InitialiseObjects@BouncingBallMain@@UAEHXZ 004284a8 f   BouncingBallMain.obj
 0001:000274e0       __unwindfunclet$??0Demo2Main@@QAE@XZ$0 004284e0 f   Demo2Main.obj
 0001:000274e8       __ehhandler$??0Demo2Main@@QAE@XZ 004284e8 f   Demo2Main.obj
 0001:00027503       __unwindfunclet$?InitialiseObjects@Demo2Main@@UAEHXZ$0 00428503 f   Demo2Main.obj
 0001:00027512       __ehhandler$?InitialiseObjects@Demo2Main@@UAEHXZ 00428512 f   Demo2Main.obj
 0001:00027540       __unwindfunclet$??0Demo2Object@@QAE@PAVDemo2Main@@@Z$0 00428540 f   Demo2Object.obj
 0001:00027548       __ehhandler$??0Demo2Object@@QAE@PAVDemo2Main@@@Z 00428548 f   Demo2Object.obj
 0001:00027570       __unwindfunclet$??0Demo3Main@@QAE@XZ$0 00428570 f   Demo3Main.obj
 0001:00027578       __ehhandler$??0Demo3Main@@QAE@XZ 00428578 f   Demo3Main.obj
 0001:00027593       __unwindfunclet$?InitialiseObjects@Demo3Main@@UAEHXZ$0 00428593 f   Demo3Main.obj
 0001:000275a2       __unwindfunclet$?InitialiseObjects@Demo3Main@@UAEHXZ$1 004285a2 f   Demo3Main.obj
 0001:000275b1       __unwindfunclet$?InitialiseObjects@Demo3Main@@UAEHXZ$2 004285b1 f   Demo3Main.obj
 0001:000275c0       __unwindfunclet$?InitialiseObjects@Demo3Main@@UAEHXZ$3 004285c0 f   Demo3Main.obj
 0001:000275cf       __unwindfunclet$?InitialiseObjects@Demo3Main@@UAEHXZ$4 004285cf f   Demo3Main.obj
 0001:000275de       __ehhandler$?InitialiseObjects@Demo3Main@@UAEHXZ 004285de f   Demo3Main.obj
 0001:00027620       __unwindfunclet$??0Demo3Object@@QAE@PAVDemo3Main@@HH@Z$0 00428620 f   Demo3Object.obj
 0001:00027628       __ehhandler$??0Demo3Object@@QAE@PAVDemo3Main@@HH@Z 00428628 f   Demo3Object.obj
 0001:00027650       __unwindfunclet$??0Demo3ObjectFinished@@QAE@PAVDemo3Main@@HH@Z$0 00428650 f   Demo3ObjectFinished.obj
 0001:00027658       __ehhandler$??0Demo3ObjectFinished@@QAE@PAVDemo3Main@@HH@Z 00428658 f   Demo3ObjectFinished.obj
 0001:00027680       __unwindfunclet$??0Demo4Main@@QAE@XZ$0 00428680 f   Demo4Main.obj
 0001:00027688       __ehhandler$??0Demo4Main@@QAE@XZ 00428688 f   Demo4Main.obj
 0001:000276a3       __unwindfunclet$?InitialiseObjects@Demo4Main@@UAEHXZ$0 004286a3 f   Demo4Main.obj
 0001:000276b2       __unwindfunclet$?InitialiseObjects@Demo4Main@@UAEHXZ$1 004286b2 f   Demo4Main.obj
 0001:000276c1       __unwindfunclet$?InitialiseObjects@Demo4Main@@UAEHXZ$2 004286c1 f   Demo4Main.obj
 0001:000276d0       __unwindfunclet$?InitialiseObjects@Demo4Main@@UAEHXZ$3 004286d0 f   Demo4Main.obj
 0001:000276df       __unwindfunclet$?InitialiseObjects@Demo4Main@@UAEHXZ$4 004286df f   Demo4Main.obj
 0001:000276ee       __ehhandler$?InitialiseObjects@Demo4Main@@UAEHXZ 004286ee f   Demo4Main.obj
 0001:00027730       __unwindfunclet$??0Demo4Object@@QAE@PAVDemo4Main@@HH@Z$0 00428730 f   Demo4Object.obj
 0001:00027738       __ehhandler$??0Demo4Object@@QAE@PAVDemo4Main@@HH@Z 00428738 f   Demo4Object.obj
 0001:0002775b       __ehhandler$??1_Fac_node@std@@QAE@XZ 0042875b f   msvcprt:locale0_implib.obj
 0001:00028822       ??__F_Fac_tidy_reg@std@@YAXXZ 00429822 f   msvcprt:locale0_implib.obj
 0002:00000104       ?pre_cpp_initializer@@3P6AXXZA 0042b104     MSVCRT:exe_main.obj
 0002:00000208       ?_Fac_tidy_reg$initializer$@std@@3P6AXXZA 0042b208     msvcprt:locale0_implib.obj
 0002:00000514       ?pre_c_initializer@@3P6AHXZA 0042b514     MSVCRT:exe_main.obj
 0002:00000618       ?post_pgo_initializer@@3P6AHXZA 0042b618     MSVCRT:exe_main.obj
 0002:00000c30       $SG65443                   0042bc30     ArrowObject.obj
 0002:00000c54       $SG66163                   0042bc54     EnemyObject.obj
 0002:00000c68       $SG66167                   0042bc68     EnemyObject.obj
 0002:00000c7c       $SG66169                   0042bc7c     EnemyObject.obj
 0002:00000c90       $SG66170                   0042bc90     EnemyObject.obj
 0002:00000ca4       $SG66171                   0042bca4     EnemyObject.obj
 0002:00000cbc       $SG66172                   0042bcbc     EnemyObject.obj
 0002:00000cd0       $SG66173                   0042bcd0     EnemyObject.obj
 0002:00000ce4       $SG66174                   0042bce4     EnemyObject.obj
 0002:00000cf8       $SG66176                   0042bcf8     EnemyObject.obj
 0002:00000e38       $SG65731                   0042be38     Equipment.obj
 0002:00000e40       $SG65733                   0042be40     Equipment.obj
 0002:00000e48       $SG65735                   0042be48     Equipment.obj
 0002:00000e54       $SG65737                   0042be54     Equipment.obj
 0002:00000e5c       $SG65739                   0042be5c     Equipment.obj
 0002:00000e64       $SG65741                   0042be64     Equipment.obj
 0002:00000e6c       $SG65743                   0042be6c     Equipment.obj
 0002:00000e78       $SG65745                   0042be78     Equipment.obj
 0002:00000e80       $SG65747                   0042be80     Equipment.obj
 0002:00000e88       $SG65848                   0042be88     Equipment.obj
 0002:00000e94       $SG65850                   0042be94     Equipment.obj
 0002:00000ea0       $SG65852                   0042bea0     Equipment.obj
 0002:00000eac       $SG65922                   0042beac     Equipment.obj
 0002:00000eb8       $SG65923                   0042beb8     Equipment.obj
 0002:00000ec8       $SG65924                   0042bec8     Equipment.obj
 0002:00000ed0       $SG65925                   0042bed0     Equipment.obj
 0002:00000ed8       $SG65926                   0042bed8     Equipment.obj
 0002:00000ee4       $SG65927                   0042bee4     Equipment.obj
 0002:00000ef0       $SG65928                   0042bef0     Equipment.obj
 0002:00000f00       $SG65936                   0042bf00     Equipment.obj
 0002:00000f1c       $SG65938                   0042bf1c     Equipment.obj
 0002:00000f34       $SG65940                   0042bf34     Equipment.obj
 0002:00000f4c       $SG65942                   0042bf4c     Equipment.obj
 0002:00000f64       $SG65945                   0042bf64     Equipment.obj
 0002:00000f80       $SG65947                   0042bf80     Equipment.obj
 0002:00000f98       $SG65949                   0042bf98     Equipment.obj
 0002:00000fb0       $SG65951                   0042bfb0     Equipment.obj
 0002:00000fc8       $SG65954                   0042bfc8     Equipment.obj
 0002:00000fe4       $SG65956                   0042bfe4     Equipment.obj
 0002:00000ffc       $SG65958                   0042bffc     Equipment.obj
 0002:00001014       $SG65960                   0042c014     Equipment.obj
 0002:0000102c       $SG65963                   0042c02c     Equipment.obj
 0002:00001048       $SG65965                   0042c048     Equipment.obj
 0002:00001060       $SG65967                   0042c060     Equipment.obj
 0002:00001078       $SG65969                   0042c078     Equipment.obj
 0002:00001090       $SG65972                   0042c090     Equipment.obj
 0002:000010ac       $SG65974                   0042c0ac     Equipment.obj
 0002:000010c4       $SG65976                   0042c0c4     Equipment.obj
 0002:000010dc       $SG65978                   0042c0dc     Equipment.obj
 0002:000010f4       $SG65981                   0042c0f4     Equipment.obj
 0002:00001114       $SG65983                   0042c114     Equipment.obj
 0002:0000112c       $SG65985                   0042c12c     Equipment.obj
 0002:00001144       $SG65987                   0042c144     Equipment.obj
 0002:0000115c       $SG65990                   0042c15c     Equipment.obj
 0002:00001178       $SG65992                   0042c178     Equipment.obj
 0002:00001190       $SG65994                   0042c190     Equipment.obj
 0002:000011a8       $SG65996                   0042c1a8     Equipment.obj
 0002:000011c0       $SG65999                   0042c1c0     Equipment.obj
 0002:000011dc       $SG66001                   0042c1dc     Equipment.obj
 0002:000011f4       $SG66003                   0042c1f4     Equipment.obj
 0002:0000120c       $SG66005                   0042c20c     Equipment.obj
 0002:00001308       $SG65935                   0042c308     HeroObject.obj
 0002:0000131c       $SG65938                   0042c31c     HeroObject.obj
 0002:00001320       $SG65939                   0042c320     HeroObject.obj
 0002:00001324       $SG65940                   0042c324     HeroObject.obj
 0002:0000133c       $SG65941                   0042c33c     HeroObject.obj
 0002:00001354       $SG65942                   0042c354     HeroObject.obj
 0002:0000136c       $SG65943                   0042c36c     HeroObject.obj
 0002:00001384       $SG65944                   0042c384     HeroObject.obj
 0002:0000139c       $SG65946                   0042c39c     HeroObject.obj
 0002:000013a4       $SG65948                   0042c3a4     HeroObject.obj
 0002:000013ac       $SG65950                   0042c3ac     HeroObject.obj
 0002:000013b4       $SG65952                   0042c3b4     HeroObject.obj
 0002:000013b8       $SG66066                   0042c3b8     HeroObject.obj
 0002:000013d4       $SG66069                   0042c3d4     HeroObject.obj
 0002:000013f0       $SG66072                   0042c3f0     HeroObject.obj
 0002:0000140c       $SG66075                   0042c40c     HeroObject.obj
 0002:00001428       $SG66078                   0042c428     HeroObject.obj
 0002:00001444       $SG66081                   0042c444     HeroObject.obj
 0002:00001464       $SG66084                   0042c464     HeroObject.obj
 0002:00001480       $SG66087                   0042c480     HeroObject.obj
 0002:00001528       $SG65836                   0042c528     mainfunction.obj
 0002:00001538       $SG65837                   0042c538     mainfunction.obj
 0002:00001558       $SG84956                   0042c558     BaseEngine.obj
 0002:00001570       $SG85523                   0042c570     BaseEngine.obj
 0002:0000159c       $SG85524                   0042c59c     BaseEngine.obj
 0002:000015b8       $SG85578                   0042c5b8     BaseEngine.obj
 0002:00001758       $SG34533                   0042c758     FontManager.obj
 0002:00001774       $SG34537                   0042c774     FontManager.obj
 0002:000017f4       $SG67998                   0042c7f4     PsyagceEngine.obj
 0002:00001808       $SG68001                   0042c808     PsyagceEngine.obj
 0002:0000180c       $SG68002                   0042c80c     PsyagceEngine.obj
 0002:00001810       $SG68003                   0042c810     PsyagceEngine.obj
 0002:00001814       $SG68004                   0042c814     PsyagceEngine.obj
 0002:00001818       $SG68005                   0042c818     PsyagceEngine.obj
 0002:0000181c       $SG68006                   0042c81c     PsyagceEngine.obj
 0002:00001820       $SG68007                   0042c820     PsyagceEngine.obj
 0002:00001824       $SG68008                   0042c824     PsyagceEngine.obj
 0002:00001828       $SG68009                   0042c828     PsyagceEngine.obj
 0002:0000182c       $SG68010                   0042c82c     PsyagceEngine.obj
 0002:00001830       $SG68011                   0042c830     PsyagceEngine.obj
 0002:0000183c       $SG68012                   0042c83c     PsyagceEngine.obj
 0002:00001850       $SG68013                   0042c850     PsyagceEngine.obj
 0002:00001868       $SG68016                   0042c868     PsyagceEngine.obj
 0002:0000186c       $SG68017                   0042c86c     PsyagceEngine.obj
 0002:00001870       $SG68018                   0042c870     PsyagceEngine.obj
 0002:00001874       $SG68019                   0042c874     PsyagceEngine.obj
 0002:00001878       $SG68020                   0042c878     PsyagceEngine.obj
 0002:0000187c       $SG68021                   0042c87c     PsyagceEngine.obj
 0002:00001880       $SG68022                   0042c880     PsyagceEngine.obj
 0002:00001884       $SG68023                   0042c884     PsyagceEngine.obj
 0002:00001888       $SG68024                   0042c888     PsyagceEngine.obj
 0002:0000188c       $SG68025                   0042c88c     PsyagceEngine.obj
 0002:00001894       $SG68026                   0042c894     PsyagceEngine.obj
 0002:00001898       $SG68027                   0042c898     PsyagceEngine.obj
 0002:000018ac       $SG68028                   0042c8ac     PsyagceEngine.obj
 0002:000018c0       $SG68031                   0042c8c0     PsyagceEngine.obj
 0002:000018c4       $SG68032                   0042c8c4     PsyagceEngine.obj
 0002:000018c8       $SG68033                   0042c8c8     PsyagceEngine.obj
 0002:000018cc       $SG68034                   0042c8cc     PsyagceEngine.obj
 0002:000018d0       $SG68035                   0042c8d0     PsyagceEngine.obj
 0002:000018d4       $SG68036                   0042c8d4     PsyagceEngine.obj
 0002:000018d8       $SG68037                   0042c8d8     PsyagceEngine.obj
 0002:000018dc       $SG68038                   0042c8dc     PsyagceEngine.obj
 0002:000018e0       $SG68039                   0042c8e0     PsyagceEngine.obj
 0002:000018e4       $SG68040                   0042c8e4     PsyagceEngine.obj
 0002:000018f8       $SG68041                   0042c8f8     PsyagceEngine.obj
 0002:00001910       $SG68044                   0042c910     PsyagceEngine.obj
 0002:00001914       $SG68045                   0042c914     PsyagceEngine.obj
 0002:00001918       $SG68046                   0042c918     PsyagceEngine.obj
 0002:0000191c       $SG68047                   0042c91c     PsyagceEngine.obj
 0002:00001930       $SG66277                   0042c930     PsyagceEngine.obj
 0002:00001938       $SG66278                   0042c938     PsyagceEngine.obj
 0002:00001950       $SG66313                   0042c950     PsyagceEngine.obj
 0002:0000196c       $SG66314                   0042c96c     PsyagceEngine.obj
 0002:0000198c       $SG66315                   0042c98c     PsyagceEngine.obj
 0002:000019ac       $SG66316                   0042c9ac     PsyagceEngine.obj
 0002:000019cc       $SG66317                   0042c9cc     PsyagceEngine.obj
 0002:000019ec       $SG66318                   0042c9ec     PsyagceEngine.obj
 0002:000019f4       $SG66321                   0042c9f4     PsyagceEngine.obj
 0002:00001a0c       $SG66323                   0042ca0c     PsyagceEngine.obj
 0002:00001a28       $SG66325                   0042ca28     PsyagceEngine.obj
 0002:00001a3c       $SG66497                   0042ca3c     PsyagceEngine.obj
 0002:00001a40       $SG66523                   0042ca40     PsyagceEngine.obj
 0002:00001a48       $SG66552                   0042ca48     PsyagceEngine.obj
 0002:00001a6c       $SG66630                   0042ca6c     PsyagceEngine.obj
 0002:00001a78       $SG66632                   0042ca78     PsyagceEngine.obj
 0002:00001a84       $SG66634                   0042ca84     PsyagceEngine.obj
 0002:00001a8c       $SG66635                   0042ca8c     PsyagceEngine.obj
 0002:00001a94       $SG66636                   0042ca94     PsyagceEngine.obj
 0002:00001a9c       $SG66637                   0042ca9c     PsyagceEngine.obj
 0002:00001aa4       $SG66638                   0042caa4     PsyagceEngine.obj
 0002:00001aac       $SG66639                   0042caac     PsyagceEngine.obj
 0002:00001ac0       $SG66643                   0042cac0     PsyagceEngine.obj
 0002:00001adc       $SG66644                   0042cadc     PsyagceEngine.obj
 0002:00001aec       $SG66645                   0042caec     PsyagceEngine.obj
 0002:00001af8       $SG66646                   0042caf8     PsyagceEngine.obj
 0002:00001b00       $SG66647                   0042cb00     PsyagceEngine.obj
 0002:00001b0c       $SG66648                   0042cb0c     PsyagceEngine.obj
 0002:00001b18       $SG66649                   0042cb18     PsyagceEngine.obj
 0002:00001b28       $SG66754                   0042cb28     PsyagceEngine.obj
 0002:00001b44       $SG66755                   0042cb44     PsyagceEngine.obj
 0002:00001b60       $SG66756                   0042cb60     PsyagceEngine.obj
 0002:00001b7c       $SG66757                   0042cb7c     PsyagceEngine.obj
 0002:00001b98       $SG66758                   0042cb98     PsyagceEngine.obj
 0002:00001bb4       $SG66759                   0042cbb4     PsyagceEngine.obj
 0002:00001bd0       $SG66760                   0042cbd0     PsyagceEngine.obj
 0002:00001bec       $SG66761                   0042cbec     PsyagceEngine.obj
 0002:00001c08       $SG67390                   0042cc08     PsyagceEngine.obj
 0002:00001c1c       $SG67393                   0042cc1c     PsyagceEngine.obj
 0002:00001c20       $SG67394                   0042cc20     PsyagceEngine.obj
 0002:00001c24       $SG67395                   0042cc24     PsyagceEngine.obj
 0002:00001c28       $SG67396                   0042cc28     PsyagceEngine.obj
 0002:00001c2c       $SG67397                   0042cc2c     PsyagceEngine.obj
 0002:00001c30       $SG67398                   0042cc30     PsyagceEngine.obj
 0002:00001c34       $SG67399                   0042cc34     PsyagceEngine.obj
 0002:00001c38       $SG67400                   0042cc38     PsyagceEngine.obj
 0002:00001c3c       $SG67401                   0042cc3c     PsyagceEngine.obj
 0002:00001c40       $SG67402                   0042cc40     PsyagceEngine.obj
 0002:00001c44       $SG67403                   0042cc44     PsyagceEngine.obj
 0002:00001c48       $SG67404                   0042cc48     PsyagceEngine.obj
 0002:00001c5c       $SG67405                   0042cc5c     PsyagceEngine.obj
 0002:00001c74       $SG67408                   0042cc74     PsyagceEngine.obj
 0002:00001c78       $SG67409                   0042cc78     PsyagceEngine.obj
 0002:00001c7c       $SG67410                   0042cc7c     PsyagceEngine.obj
 0002:00001c80       $SG67411                   0042cc80     PsyagceEngine.obj
 0002:00001c84       $SG67412                   0042cc84     PsyagceEngine.obj
 0002:00001c88       $SG67413                   0042cc88     PsyagceEngine.obj
 0002:00001c8c       $SG67414                   0042cc8c     PsyagceEngine.obj
 0002:00001c90       $SG67415                   0042cc90     PsyagceEngine.obj
 0002:00001c94       $SG67416                   0042cc94     PsyagceEngine.obj
 0002:00001c98       $SG67417                   0042cc98     PsyagceEngine.obj
 0002:00001c9c       $SG67418                   0042cc9c     PsyagceEngine.obj
 0002:00001cb0       $SG67419                   0042ccb0     PsyagceEngine.obj
 0002:00001cc4       $SG67422                   0042ccc4     PsyagceEngine.obj
 0002:00001cc8       $SG67423                   0042ccc8     PsyagceEngine.obj
 0002:00001ccc       $SG67424                   0042cccc     PsyagceEngine.obj
 0002:00001cd0       $SG67425                   0042ccd0     PsyagceEngine.obj
 0002:00001cd4       $SG67426                   0042ccd4     PsyagceEngine.obj
 0002:00001cd8       $SG67427                   0042ccd8     PsyagceEngine.obj
 0002:00001cdc       $SG67428                   0042ccdc     PsyagceEngine.obj
 0002:00001ce0       $SG67429                   0042cce0     PsyagceEngine.obj
 0002:00001ce4       $SG67430                   0042cce4     PsyagceEngine.obj
 0002:00001ce8       $SG67431                   0042cce8     PsyagceEngine.obj
 0002:00001cec       $SG67432                   0042ccec     PsyagceEngine.obj
 0002:00001d00       $SG67433                   0042cd00     PsyagceEngine.obj
 0002:00001d18       $SG67436                   0042cd18     PsyagceEngine.obj
 0002:00001d1c       $SG67437                   0042cd1c     PsyagceEngine.obj
 0002:00001d20       $SG67438                   0042cd20     PsyagceEngine.obj
 0002:00001d24       $SG67439                   0042cd24     PsyagceEngine.obj
 0002:00001d38       $SG67518                   0042cd38     PsyagceEngine.obj
 0002:00001d4c       $SG67520                   0042cd4c     PsyagceEngine.obj
 0002:00001d70       $SG67521                   0042cd70     PsyagceEngine.obj
 0002:00001d88       $SG67523                   0042cd88     PsyagceEngine.obj
 0002:00001dac       $SG67524                   0042cdac     PsyagceEngine.obj
 0002:00001dc0       $SG67526                   0042cdc0     PsyagceEngine.obj
 0002:00001f94       $SG59036                   0042cf94     PsyagceTileManager.obj
 0002:00001fa4       $SG59037                   0042cfa4     PsyagceTileManager.obj
 0002:00001fb4       $SG59038                   0042cfb4     PsyagceTileManager.obj
 0002:00001fc4       $SG59039                   0042cfc4     PsyagceTileManager.obj
 0002:00001fd8       $SG59040                   0042cfd8     PsyagceTileManager.obj
 0002:00001fe8       $SG59041                   0042cfe8     PsyagceTileManager.obj
 0002:00001ff8       $SG59140                   0042cff8     PsyagceTileManager.obj
 0002:0000204c       $SG59191                   0042d04c     SimpleDemo.obj
 0002:00002060       $SG59192                   0042d060     SimpleDemo.obj
 0002:00002078       $SG59197                   0042d078     SimpleDemo.obj
 0002:00002084       $SG59198                   0042d084     SimpleDemo.obj
 0002:000022e0       $SG65549                   0042d2e0     StatsBar.obj
 0002:000022e8       $SG65552                   0042d2e8     StatsBar.obj
 0002:000022f0       $SG65554                   0042d2f0     StatsBar.obj
 0002:000022f4       $SG65610                   0042d2f4     StatsBar.obj
 0002:000022fc       $SG65611                   0042d2fc     StatsBar.obj
 0002:00002308       $SG65698                   0042d308     StatsBar.obj
 0002:0000230c       $SG65701                   0042d30c     StatsBar.obj
 0002:00002314       $SG65703                   0042d314     StatsBar.obj
 0002:000023a4       $SG59306                   0042d3a4     BouncingBallMain.obj
 0002:000023b0       $SG59317                   0042d3b0     BouncingBallMain.obj
 0002:000023b4       $SG59319                   0042d3b4     BouncingBallMain.obj
 0002:000023b8       $SG59321                   0042d3b8     BouncingBallMain.obj
 0002:000023bc       $SG59325                   0042d3bc     BouncingBallMain.obj
 0002:00002578       $SG59174                   0042d578     Demo2Main.obj
 0002:00002628       $SG59307                   0042d628     Demo3Main.obj
 0002:00002638       $SG59308                   0042d638     Demo3Main.obj
 0002:00002648       $SG59309                   0042d648     Demo3Main.obj
 0002:00002658       $SG59310                   0042d658     Demo3Main.obj
 0002:00002668       $SG59311                   0042d668     Demo3Main.obj
 0002:00002678       $SG59312                   0042d678     Demo3Main.obj
 0002:00002688       $SG59313                   0042d688     Demo3Main.obj
 0002:00002698       $SG59314                   0042d698     Demo3Main.obj
 0002:000026a8       $SG59315                   0042d6a8     Demo3Main.obj
 0002:000026b8       $SG59316                   0042d6b8     Demo3Main.obj
 0002:000026c8       $SG59317                   0042d6c8     Demo3Main.obj
 0002:000026d8       $SG59318                   0042d6d8     Demo3Main.obj
 0002:000026dc       $SG59319                   0042d6dc     Demo3Main.obj
 0002:000026e0       $SG59341                   0042d6e0     Demo3Main.obj
 0002:000027d8       $SG59270                   0042d7d8     Demo4Main.obj
 0002:000027e8       $SG59271                   0042d7e8     Demo4Main.obj
 0002:000027f8       $SG59272                   0042d7f8     Demo4Main.obj
 0002:00002808       $SG59273                   0042d808     Demo4Main.obj
 0002:00002818       $SG59274                   0042d818     Demo4Main.obj
 0002:00002828       $SG59275                   0042d828     Demo4Main.obj
 0002:00002838       $SG59276                   0042d838     Demo4Main.obj
 0002:00002848       $SG59277                   0042d848     Demo4Main.obj
 0002:00002858       $SG59278                   0042d858     Demo4Main.obj
 0002:00002868       $SG59279                   0042d868     Demo4Main.obj
 0002:00002878       $SG59280                   0042d878     Demo4Main.obj
 0002:00002888       $SG59281                   0042d888     Demo4Main.obj
 0002:0000288c       $SG59282                   0042d88c     Demo4Main.obj
 0002:00002890       $SG59309                   0042d890     Demo4Main.obj
 0002:000028b4       $SG59311                   0042d8b4     Demo4Main.obj
 0002:000028bc       $SG59313                   0042d8bc     Demo4Main.obj
 0002:000029b8       _GS_ExceptionPointers      0042d9b8     MSVCRT:gs_report.obj
 0002:000044f0       __unwindtable$??0ArrowObject@@QAE@PAVPsyagceEngine@@HH@Z 0042f4f0     ArrowObject.obj
 0002:000044f8       __ehfuncinfo$??0ArrowObject@@QAE@PAVPsyagceEngine@@HH@Z 0042f4f8     ArrowObject.obj
 0002:00004520       __ehfuncinfo$??0?$basic_string@DU?$char_traits@D@std@@V?$allocator@D@2@@std@@QAE@XZ 0042f520     EnemyObject.obj
 0002:00004548       __unwindtable$??0?$basic_string@DU?$char_traits@D@std@@V?$allocator@D@2@@std@@QAE@QBD@Z 0042f548     EnemyObject.obj
 0002:00004550       __ehfuncinfo$??0?$basic_string@DU?$char_traits@D@std@@V?$allocator@D@2@@std@@QAE@QBD@Z 0042f550     EnemyObject.obj
 0002:00004578       __unwindtable$??0?$basic_string@DU?$char_traits@D@std@@V?$allocator@D@2@@std@@QAE@ID@Z 0042f578     EnemyObject.obj
 0002:00004580       __ehfuncinfo$??0?$basic_string@DU?$char_traits@D@std@@V?$allocator@D@2@@std@@QAE@ID@Z 0042f580     EnemyObject.obj
 0002:000045a8       __ehfuncinfo$??1?$basic_string@DU?$char_traits@D@std@@V?$allocator@D@2@@std@@QAE@XZ 0042f5a8     EnemyObject.obj
 0002:000045d0       __ehfuncinfo$?begin@?$basic_string@DU?$char_traits@D@std@@V?$allocator@D@2@@std@@QAE?AV?$_String_iterator@V?$_String_val@U?$_Simple_types@D@std@@@std@@@2@XZ 0042f5d0     EnemyObject.obj
 0002:000045f8       __ehfuncinfo$??1locale@std@@QAE@XZ 0042f5f8     EnemyObject.obj
 0002:00004620       __unwindtable$??0EnemyObject@@QAE@PAVBaseEngine@@HHHH@Z 0042f620     EnemyObject.obj
 0002:00004638       __ehfuncinfo$??0EnemyObject@@QAE@PAVBaseEngine@@HHHH@Z 0042f638     EnemyObject.obj
 0002:00004664       __unwindtable$??0?$basic_ifstream@DU?$char_traits@D@std@@@std@@QAE@PBDHH@Z 0042f664     EnemyObject.obj
 0002:0000467c       __ehfuncinfo$??0?$basic_ifstream@DU?$char_traits@D@std@@@std@@QAE@PBDHH@Z 0042f67c     EnemyObject.obj
 0002:000046a8       __unwindtable$??0?$basic_filebuf@DU?$char_traits@D@std@@@std@@QAE@PAU_iobuf@@@Z 0042f6a8     EnemyObject.obj
 0002:000046b0       __ehfuncinfo$??0?$basic_filebuf@DU?$char_traits@D@std@@@std@@QAE@PAU_iobuf@@@Z 0042f6b0     EnemyObject.obj
 0002:000046d8       __ehfuncinfo$??1?$basic_filebuf@DU?$char_traits@D@std@@@std@@UAE@XZ 0042f6d8     EnemyObject.obj
 0002:00004700       __unwindtable$?open@?$basic_filebuf@DU?$char_traits@D@std@@@std@@QAEPAV12@PBDHH@Z 0042f700     EnemyObject.obj
 0002:00004708       __ehfuncinfo$?open@?$basic_filebuf@DU?$char_traits@D@std@@@std@@QAEPAV12@PBDHH@Z 0042f708     EnemyObject.obj
 0002:00004730       __unwindtable$?overflow@?$basic_filebuf@DU?$char_traits@D@std@@@std@@MAEHH@Z 0042f730     EnemyObject.obj
 0002:00004738       __ehfuncinfo$?overflow@?$basic_filebuf@DU?$char_traits@D@std@@@std@@MAEHH@Z 0042f738     EnemyObject.obj
 0002:00004760       __unwindtable$?uflow@?$basic_filebuf@DU?$char_traits@D@std@@@std@@MAEHXZ 0042f760     EnemyObject.obj
 0002:00004768       __ehfuncinfo$?uflow@?$basic_filebuf@DU?$char_traits@D@std@@@std@@MAEHXZ 0042f768     EnemyObject.obj
 0002:00004790       __unwindtable$?_Endwrite@?$basic_filebuf@DU?$char_traits@D@std@@@std@@IAE_NXZ 0042f790     EnemyObject.obj
 0002:00004798       __ehfuncinfo$?_Endwrite@?$basic_filebuf@DU?$char_traits@D@std@@@std@@IAE_NXZ 0042f798     EnemyObject.obj
 0002:000047c0       __unwindtable$??$use_facet@V?$codecvt@DDU_Mbstatet@@@std@@@std@@YAABV?$codecvt@DDU_Mbstatet@@@0@ABVlocale@0@@Z 0042f7c0     EnemyObject.obj
 0002:000047c8       __ehfuncinfo$??$use_facet@V?$codecvt@DDU_Mbstatet@@@std@@@std@@YAABV?$codecvt@DDU_Mbstatet@@@0@ABVlocale@0@@Z 0042f7c8     EnemyObject.obj
 0002:00004854       __ehfuncinfo$??0?$basic_string@DU?$char_traits@D@std@@V?$allocator@D@2@@std@@QAE@$$QAV01@@Z 0042f854     Equipment.obj
 0002:0000487c       __ehfuncinfo$??4?$basic_string@DU?$char_traits@D@std@@V?$allocator@D@2@@std@@QAEAAV01@$$QAV01@@Z 0042f87c     Equipment.obj
 0002:000048a4       __ehfuncinfo$?_Assign_rv_contents_with_alloc_always_equal@?$basic_string@DU?$char_traits@D@std@@V?$allocator@D@2@@std@@QAEX$$QAV12@U?$integral_constant@_N$00@2@@Z 0042f8a4     Equipment.obj
 0002:000048cc       __ehfuncinfo$?c_str@?$basic_string@DU?$char_traits@D@std@@V?$allocator@D@2@@std@@QBEPBDXZ 0042f8cc     Equipment.obj
 0002:000048f4       __ehfuncinfo$?_Equal@?$basic_string@DU?$char_traits@D@std@@V?$allocator@D@2@@std@@QBE_NQBD@Z 0042f8f4     Equipment.obj
 0002:0000491c       __unwindtable$?SetName@Equipment@@QAEXV?$basic_string@DU?$char_traits@D@std@@V?$allocator@D@2@@std@@@Z 0042f91c     Equipment.obj
 0002:00004924       __unwindtable$??0Equipment@@QAE@PAVBaseEngine@@H@Z 0042f924     Equipment.obj
 0002:00004944       __ehfuncinfo$?PrintDesc@Equipment@@QAEXXZ 0042f944     Equipment.obj
 0002:00004968       __ehfuncinfo$?SetName@Equipment@@QAEXV?$basic_string@DU?$char_traits@D@std@@V?$allocator@D@2@@std@@@Z 0042f968     Equipment.obj
 0002:0000498c       __ehfuncinfo$??0Equipment@@QAE@PAVBaseEngine@@H@Z 0042f98c     Equipment.obj
 0002:000049b0       __unwindtable$?PrintDesc@Equipment@@QAEXXZ 0042f9b0     Equipment.obj
 0002:000049f4       __unwindtable$??$?HDU?$char_traits@D@std@@V?$allocator@D@1@@std@@YA?AV?$basic_string@DU?$char_traits@D@std@@V?$allocator@D@2@@0@ABV10@0@Z 0042f9f4     Equipment.obj
 0002:000049fc       __ehfuncinfo$??$?HDU?$char_traits@D@std@@V?$allocator@D@1@@std@@YA?AV?$basic_string@DU?$char_traits@D@std@@V?$allocator@D@2@@0@ABV10@0@Z 0042f9fc     Equipment.obj
 0002:00004a24       __unwindtable$??$?0PADX@?$basic_string@DU?$char_traits@D@std@@V?$allocator@D@2@@std@@QAE@PAD0ABV?$allocator@D@1@@Z 0042fa24     Equipment.obj
 0002:00004a2c       __ehfuncinfo$??$?0PADX@?$basic_string@DU?$char_traits@D@std@@V?$allocator@D@2@@std@@QAE@PAD0ABV?$allocator@D@1@@Z 0042fa2c     Equipment.obj
 0002:00004a54       __ehfuncinfo$?InitInventory@HeroObject@@QAEXXZ 0042fa54     HeroObject.obj
 0002:00004a78       __ehfuncinfo$??1HeroObject@@UAE@XZ 0042fa78     HeroObject.obj
 0002:00004a9c       __ehfuncinfo$??0HeroObject@@QAE@PAVBaseEngine@@HH@Z 0042fa9c     HeroObject.obj
 0002:00004ac0       __unwindtable$??0HeroObject@@QAE@PAVBaseEngine@@HH@Z 0042fac0     HeroObject.obj
 0002:00004b00       __unwindtable$?InitInventory@HeroObject@@QAEXXZ 0042fb00     HeroObject.obj
 0002:00004ba0       __ehfuncinfo$??1BaseEngine@@UAE@XZ 0042fba0     BaseEngine.obj
 0002:00004bc8       __unwindtable$?GetFont@FontManager@@QAEPAVFont@@PBDH@Z 0042fbc8     FontManager.obj
 0002:00004bd0       __ehfuncinfo$?GetFont@FontManager@@QAEPAVFont@@PBDH@Z 0042fbd0     FontManager.obj
 0002:00004bf8       __ehfuncinfo$?data@?$basic_string@DU?$char_traits@D@std@@V?$allocator@D@2@@std@@QBEPBDXZ 0042fbf8     PsyagceEngine.obj
 0002:00004c20       __unwindtable$??$use_facet@V?$ctype@D@std@@@std@@YAABV?$ctype@D@0@ABVlocale@0@@Z 0042fc20     PsyagceEngine.obj
 0002:00004c28       __ehfuncinfo$??$use_facet@V?$ctype@D@std@@@std@@YAABV?$ctype@D@0@ABVlocale@0@@Z 0042fc28     PsyagceEngine.obj
 0002:00004c50       __unwindtable$?LoadStats@PsyagceEngine@@QAEXXZ 0042fc50     PsyagceEngine.obj
 0002:00004c68       __unwindtable$?NewGame@PsyagceEngine@@QAEXXZ 0042fc68     PsyagceEngine.obj
 0002:00004c88       __unwindtable$?SaveStats@PsyagceEngine@@QAEXXZ 0042fc88     PsyagceEngine.obj
 0002:00004ca8       __unwindtable$?InitialiseObjects@PsyagceEngine@@UAEHXZ 0042fca8     PsyagceEngine.obj
 0002:00004cc8       __ehfuncinfo$?NewGame@PsyagceEngine@@QAEXXZ 0042fcc8     PsyagceEngine.obj
 0002:00004cec       __ehfuncinfo$?LoadStats@PsyagceEngine@@QAEXXZ 0042fcec     PsyagceEngine.obj
 0002:00004d10       __ehfuncinfo$?SaveStats@PsyagceEngine@@QAEXXZ 0042fd10     PsyagceEngine.obj
 0002:00004d34       __ehfuncinfo$?InitialiseObjects@PsyagceEngine@@UAEHXZ 0042fd34     PsyagceEngine.obj
 0002:00004d58       __ehfuncinfo$?DrawStringsOnTop@PsyagceEngine@@UAEXXZ 0042fd58     PsyagceEngine.obj
 0002:00004d7c       __ehfuncinfo$??1PsyagceEngine@@UAE@XZ 0042fd7c     PsyagceEngine.obj
 0002:00004da0       __ehfuncinfo$??0PsyagceEngine@@QAE@XZ 0042fda0     PsyagceEngine.obj
 0002:00004dc4       __unwindtable$?DrawStringsOnTop@PsyagceEngine@@UAEXXZ 0042fdc4     PsyagceEngine.obj
 0002:00004e0c       __unwindtable$??0PsyagceEngine@@QAE@XZ 0042fe0c     PsyagceEngine.obj
 0002:00004eb4       __ehfuncinfo$??0?$vector@HV?$allocator@H@std@@@std@@QAE@XZ 0042feb4     PsyagceEngine.obj
 0002:00004edc       __ehfuncinfo$??1?$vector@HV?$allocator@H@std@@@std@@QAE@XZ 0042fedc     PsyagceEngine.obj
 0002:00004f04       __catchsym$??$?6U?$char_traits@D@std@@@std@@YAAAV?$basic_ostream@DU?$char_traits@D@std@@@0@AAV10@PBD@Z$3 0042ff04     PsyagceEngine.obj
 0002:00004f14       __tryblocktable$??$?6U?$char_traits@D@std@@@std@@YAAAV?$basic_ostream@DU?$char_traits@D@std@@@0@AAV10@PBD@Z 0042ff14     PsyagceEngine.obj
 0002:00004f28       __unwindtable$??$?6U?$char_traits@D@std@@@std@@YAAAV?$basic_ostream@DU?$char_traits@D@std@@@0@AAV10@PBD@Z 0042ff28     PsyagceEngine.obj
 0002:00004f40       __ehfuncinfo$??$?6U?$char_traits@D@std@@@std@@YAAAV?$basic_ostream@DU?$char_traits@D@std@@@0@AAV10@PBD@Z 0042ff40     PsyagceEngine.obj
 0002:00004f70       __unwindtable$??$?HDU?$char_traits@D@std@@V?$allocator@D@1@@std@@YA?AV?$basic_string@DU?$char_traits@D@std@@V?$allocator@D@2@@0@QBDABV10@@Z 0042ff70     PsyagceEngine.obj
 0002:00004f78       __ehfuncinfo$??$?HDU?$char_traits@D@std@@V?$allocator@D@1@@std@@YA?AV?$basic_string@DU?$char_traits@D@std@@V?$allocator@D@2@@0@QBDABV10@@Z 0042ff78     PsyagceEngine.obj
 0002:00004fa0       __unwindtable$??0?$basic_ofstream@DU?$char_traits@D@std@@@std@@QAE@PBDHH@Z 0042ffa0     PsyagceEngine.obj
 0002:00004fb8       __ehfuncinfo$??0?$basic_ofstream@DU?$char_traits@D@std@@@std@@QAE@PBDHH@Z 0042ffb8     PsyagceEngine.obj
 0002:00004fe4       __catchsym$??$?5DU?$char_traits@D@std@@V?$allocator@D@1@@std@@YAAAV?$basic_istream@DU?$char_traits@D@std@@@0@$$QAV10@AAV?$basic_string@DU?$char_traits@D@std@@V?$allocator@D@2@@0@@Z$4 0042ffe4     PsyagceEngine.obj
 0002:00004ff4       __tryblocktable$??$?5DU?$char_traits@D@std@@V?$allocator@D@1@@std@@YAAAV?$basic_istream@DU?$char_traits@D@std@@@0@$$QAV10@AAV?$basic_string@DU?$char_traits@D@std@@V?$allocator@D@2@@0@@Z 0042fff4     PsyagceEngine.obj
 0002:00005008       __unwindtable$??$?5DU?$char_traits@D@std@@V?$allocator@D@1@@std@@YAAAV?$basic_istream@DU?$char_traits@D@std@@@0@$$QAV10@AAV?$basic_string@DU?$char_traits@D@std@@V?$allocator@D@2@@0@@Z 00430008     PsyagceEngine.obj
 0002:00005028       __ehfuncinfo$??$?5DU?$char_traits@D@std@@V?$allocator@D@1@@std@@YAAAV?$basic_istream@DU?$char_traits@D@std@@@0@$$QAV10@AAV?$basic_string@DU?$char_traits@D@std@@V?$allocator@D@2@@0@@Z 00430028     PsyagceEngine.obj
 0002:00005058       __catchsym$??$emplace_back@ABH@?$vector@HV?$allocator@H@std@@@std@@QAE@ABH@Z$2 00430058     PsyagceEngine.obj
 0002:00005068       __unwindtable$??$emplace_back@ABH@?$vector@HV?$allocator@H@std@@@std@@QAE@ABH@Z 00430068     PsyagceEngine.obj
 0002:00005078       __tryblocktable$??$emplace_back@ABH@?$vector@HV?$allocator@H@std@@@std@@QAE@ABH@Z 00430078     PsyagceEngine.obj
 0002:0000508c       __ehfuncinfo$??$emplace_back@ABH@?$vector@HV?$allocator@H@std@@@std@@QAE@ABH@Z 0043008c     PsyagceEngine.obj
 0002:000050b8       __ehfuncinfo$??1_Sentry_base@?$basic_ostream@DU?$char_traits@D@std@@@std@@QAE@XZ 004300b8     PsyagceEngine.obj
 0002:000050e0       __unwindtable$??0sentry@?$basic_ostream@DU?$char_traits@D@std@@@std@@QAE@AAV12@@Z 004300e0     PsyagceEngine.obj
 0002:000050e8       __ehfuncinfo$??0sentry@?$basic_ostream@DU?$char_traits@D@std@@@std@@QAE@AAV12@@Z 004300e8     PsyagceEngine.obj
 0002:00005110       __ehfuncinfo$??1sentry@?$basic_ostream@DU?$char_traits@D@std@@@std@@QAE@XZ 00430110     PsyagceEngine.obj
 0002:00005138       __ehfuncinfo$??1_Sentry_base@?$basic_istream@DU?$char_traits@D@std@@@std@@QAE@XZ 00430138     PsyagceEngine.obj
 0002:00005160       __unwindtable$??0sentry@?$basic_istream@DU?$char_traits@D@std@@@std@@QAE@AAV12@_N@Z 00430160     PsyagceEngine.obj
 0002:00005168       __ehfuncinfo$??0sentry@?$basic_istream@DU?$char_traits@D@std@@@std@@QAE@AAV12@_N@Z 00430168     PsyagceEngine.obj
 0002:00005190       __catchsym$??$_Insert_string@DU?$char_traits@D@std@@I@std@@YAAAV?$basic_ostream@DU?$char_traits@D@std@@@0@AAV10@QBDI@Z$3 00430190     PsyagceEngine.obj
 0002:000051a0       __tryblocktable$??$_Insert_string@DU?$char_traits@D@std@@I@std@@YAAAV?$basic_ostream@DU?$char_traits@D@std@@@0@AAV10@QBDI@Z 004301a0     PsyagceEngine.obj
 0002:000051b4       __unwindtable$??$_Insert_string@DU?$char_traits@D@std@@I@std@@YAAAV?$basic_ostream@DU?$char_traits@D@std@@@0@AAV10@QBDI@Z 004301b4     PsyagceEngine.obj
 0002:000051cc       __ehfuncinfo$??$_Insert_string@DU?$char_traits@D@std@@I@std@@YAAAV?$basic_ostream@DU?$char_traits@D@std@@@0@AAV10@QBDI@Z 004301cc     PsyagceEngine.obj
 0002:000051fc       __ehfuncinfo$??1PsyagceTileManager@@QAE@XZ 004301fc     PsyagceTileManager.obj
 0002:00005220       __ehfuncinfo$??0PsyagceTileManager@@QAE@XZ 00430220     PsyagceTileManager.obj
 0002:00005244       __unwindtable$??0PsyagceTileManager@@QAE@XZ 00430244     PsyagceTileManager.obj
 0002:00005288       __unwindtable$?InitialiseObjects@SimpleDemo@@UAEHXZ 00430288     SimpleDemo.obj
 0002:00005290       __ehfuncinfo$?InitialiseObjects@SimpleDemo@@UAEHXZ 00430290     SimpleDemo.obj
 0002:000052b8       __unwindtable$??0SimpleShape@@QAE@PAVSimpleDemo@@@Z 004302b8     SimpleDemo.obj
 0002:000052c0       __ehfuncinfo$??0SimpleShape@@QAE@PAVSimpleDemo@@@Z 004302c0     SimpleDemo.obj
 0002:000052e8       __ehfuncinfo$??1SpriteObject@@UAE@XZ 004302e8     SpriteObject.obj
 0002:0000530c       __ehfuncinfo$??0SpriteObject@@QAE@PAVBaseEngine@@HH@Z 0043030c     SpriteObject.obj
 0002:00005330       __unwindtable$??0SpriteObject@@QAE@PAVBaseEngine@@HH@Z 00430330     SpriteObject.obj
 0002:00005364       __unwindtable$?Draw@StatsBar@@UAEXXZ 00430364     StatsBar.obj
 0002:0000536c       __unwindtable$??0StatsBar@@QAE@PAVBaseEngine@@HV?$basic_string@DU?$char_traits@D@std@@V?$allocator@D@2@@std@@HH@Z 0043036c     StatsBar.obj
 0002:0000538c       __ehfuncinfo$?Draw@StatsBar@@UAEXXZ 0043038c     StatsBar.obj
 0002:000053b0       __ehfuncinfo$??0StatsBar@@QAE@PAVBaseEngine@@HV?$basic_string@DU?$char_traits@D@std@@V?$allocator@D@2@@std@@HH@Z 004303b0     StatsBar.obj
 0002:000053e0       __unwindtable$??0BouncingBall1@@QAE@PAVBouncingBallMain@@HHHHPBDHHPAVTileManager@@@Z 004303e0     BouncingBall.obj
 0002:000053e8       __unwindtable$??0BouncingBall@@QAE@PAVBouncingBallMain@@HHHHPBDHH@Z 004303e8     BouncingBall.obj
 0002:000053f0       __ehfuncinfo$??0BouncingBall1@@QAE@PAVBouncingBallMain@@HHHHPBDHHPAVTileManager@@@Z 004303f0     BouncingBall.obj
 0002:00005414       __ehfuncinfo$??0BouncingBall@@QAE@PAVBouncingBallMain@@HHHHPBDHH@Z 00430414     BouncingBall.obj
 0002:00005440       __unwindtable$?SetupBackgroundBuffer@BouncingBallMain@@UAEXXZ 00430440     BouncingBallMain.obj
 0002:00005450       __unwindtable$?InitialiseObjects@BouncingBallMain@@UAEHXZ 00430450     BouncingBallMain.obj
 0002:00005468       __ehfuncinfo$?InitialiseObjects@BouncingBallMain@@UAEHXZ 00430468     BouncingBallMain.obj
 0002:0000548c       __ehfuncinfo$?SetupBackgroundBuffer@BouncingBallMain@@UAEXXZ 0043048c     BouncingBallMain.obj
 0002:000054bc       __unwindtable$?InitialiseObjects@Demo2Main@@UAEHXZ 004304bc     Demo2Main.obj
 0002:000054c4       __unwindtable$??0Demo2Main@@QAE@XZ 004304c4     Demo2Main.obj
 0002:000054cc       __ehfuncinfo$?InitialiseObjects@Demo2Main@@UAEHXZ 004304cc     Demo2Main.obj
 0002:000054f0       __ehfuncinfo$??0Demo2Main@@QAE@XZ 004304f0     Demo2Main.obj
 0002:0000551c       __unwindtable$??0Demo2Object@@QAE@PAVDemo2Main@@@Z 0043051c     Demo2Object.obj
 0002:00005524       __ehfuncinfo$??0Demo2Object@@QAE@PAVDemo2Main@@@Z 00430524     Demo2Object.obj
 0002:0000554c       __unwindtable$??0Demo3Main@@QAE@XZ 0043054c     Demo3Main.obj
 0002:00005554       __ehfuncinfo$?InitialiseObjects@Demo3Main@@UAEHXZ 00430554     Demo3Main.obj
 0002:00005578       __ehfuncinfo$??0Demo3Main@@QAE@XZ 00430578     Demo3Main.obj
 0002:0000559c       __unwindtable$?InitialiseObjects@Demo3Main@@UAEHXZ 0043059c     Demo3Main.obj
 0002:000055d0       __unwindtable$??0Demo3Object@@QAE@PAVDemo3Main@@HH@Z 004305d0     Demo3Object.obj
 0002:000055d8       __ehfuncinfo$??0Demo3Object@@QAE@PAVDemo3Main@@HH@Z 004305d8     Demo3Object.obj
 0002:00005600       __unwindtable$??0Demo3ObjectFinished@@QAE@PAVDemo3Main@@HH@Z 00430600     Demo3ObjectFinished.obj
 0002:00005608       __ehfuncinfo$??0Demo3ObjectFinished@@QAE@PAVDemo3Main@@HH@Z 00430608     Demo3ObjectFinished.obj
 0002:00005630       __unwindtable$??0Demo4Main@@QAE@XZ 00430630     Demo4Main.obj
 0002:00005638       __ehfuncinfo$?InitialiseObjects@Demo4Main@@UAEHXZ 00430638     Demo4Main.obj
 0002:0000565c       __ehfuncinfo$??0Demo4Main@@QAE@XZ 0043065c     Demo4Main.obj
 0002:00005680       __unwindtable$?InitialiseObjects@Demo4Main@@UAEHXZ 00430680     Demo4Main.obj
 0002:000056b4       __unwindtable$??0Demo4Object@@QAE@PAVDemo4Main@@HH@Z 004306b4     Demo4Object.obj
 0002:000056bc       __ehfuncinfo$??0Demo4Object@@QAE@PAVDemo4Main@@HH@Z 004306bc     Demo4Object.obj
 0002:000056e4       __ehfuncinfo$??1_Fac_node@std@@QAE@XZ 004306e4     msvcprt:locale0_implib.obj
 0002:00005710       __sehtable$?__scrt_common_main_seh@@YAHXZ 00430710     MSVCRT:exe_main.obj
 0002:00005730       __sehtable$___scrt_is_nonwritable_in_current_image 00430730     MSVCRT:utility.obj
 0002:00005750       __sehtable$??_L@YGXPAXIIP6EX0@Z1@Z 00430750     MSVCRT:ehvecctr.obj
 0002:00005770       __sehtable$??_M@YGXPAXIIP6EX0@Z@Z 00430770     MSVCRT:ehvecdtr.obj
 0002:00005790       __sehtable$?__ArrayUnwind@@YGXPAXIIP6EX0@Z@Z 00430790     MSVCRT:ehvecdtr.obj
 0003:000008d0       ?_Fac_head@std@@3PAU_Fac_node@1@A 004318d0     msvcprt:locale0_implib.obj
 0003:000008d4       ?_Fac_tidy_reg@std@@3U_Fac_tidy_reg_t@1@B 004318d4     msvcprt:locale0_implib.obj
 0003:000008e0       ?module_local_atexit_table@@3U_onexit_table_t@@A 004318e0     MSVCRT:utility.obj
 0003:000008ec       ?module_local_at_quick_exit_table@@3U_onexit_table_t@@A 004318ec     MSVCRT:utility.obj
 0003:000008f8       ?module_local_atexit_table_initialized@@3_NA 004318f8     MSVCRT:utility.obj
 0003:000008f9       ?is_initialized_as_dll@@3_NA 004318f9     MSVCRT:utility.obj
 0003:00000920       _GS_ExceptionRecord        00431920     MSVCRT:gs_report.obj
 0003:00000970       _GS_ContextRecord          00431970     MSVCRT:gs_report.obj
 0004:00000e54       .idata$6                   00432e54     SDL2:SDL2.dll
 0004:00000e6a       .idata$6                   00432e6a     SDL2_image:SDL2_image.dll
 0004:00000eca       .idata$6                   00432eca     SDL2_ttf:SDL2_ttf.dll
 0004:00001e56       .idata$6                   00433e56     msvcprt:MSVCP140.dll
 0004:00001f24       .idata$6                   00433f24     vcruntime:VCRUNTIME140.dll
 0004:000022e4       .idata$6                   004342e4     ucrt:api-ms-win-crt-stdio-l1-1-0.dll
 0004:00002304       .idata$6                   00434304     ucrt:api-ms-win-crt-runtime-l1-1-0.dll
 0004:00002326       .idata$6                   00434326     ucrt:api-ms-win-crt-utility-l1-1-0.dll
 0004:00002348       .idata$6                   00434348     ucrt:api-ms-win-crt-filesystem-l1-1-0.dll
 0004:0000236e       .idata$6                   0043436e     ucrt:api-ms-win-crt-string-l1-1-0.dll
 0004:00002390       .idata$6                   00434390     ucrt:api-ms-win-crt-time-l1-1-0.dll
 0004:000023b0       .idata$6                   004343b0     ucrt:api-ms-win-crt-math-l1-1-0.dll
 0004:000023d0       .idata$6                   004343d0     ucrt:api-ms-win-crt-locale-l1-1-0.dll
 0004:000023f2       .idata$6                   004343f2     ucrt:api-ms-win-crt-heap-l1-1-0.dll
 0004:00002552       .idata$6                   00434552     kernel32:KERNEL32.dll
 0006:00000170       $R000000                   00436170     * linker generated manifest res *
